(lp0
L99960656L
aL99960532L
aL99960706L
aL99980231L
aL99946405L
aL99980260L
aL99985335L
aL99985034L
aL99960674L
aL99985355L
aL99915214L
aL99985206L
aL99960659L
aL99960107L
aL99978617L
aL99961088L
aL99915106L
aL99995831L
aL99995818L
aL99960421L
aL99995814L
aL99995838L
aL99985139L
aL99995811L
aL99995819L
aL99915212L
aL99960451L
aL99978759L
aL99960540L
aL99985120L
aL99995841L
aL99995835L
aL99960447L
aL99995825L
aL99985383L
aL99992024L
aL99995817L
aL99978741L
aL99978681L
aL99910281L
aL99960585L
aL99992079L
aL99978641L
aL99978704L
aL99975204L
aL99960644L
aL99960652L
aL99978719L
aL99978733L
aL99978634L
aL99978710L
aL99960677L
aL99978737L
aL99978774L
aL99946407L
aL99978701L
aL99978734L
aL99995816L
aL99978729L
aL99995842L
aL99953202L
aL99978702L
aL99995824L
aL99985379L
aL99961020L
aL99960586L
aL99960633L
aL99960660L
aL99978730L
aL99960641L
aL99994527L
aL99960131L
aL99994937L
aL99985037L
aL99975041L
aL99960688L
aL99960410L
aL99960608L
aL99980293L
aL99994720L
aL99994948L
aL99994941L
aL99960208L
aL99994110L
aL99960654L
aL99994127L
aL99985080L
aL99994929L
aL99960638L
aL99985298L
aL99985224L
aL99953154L
aL99960607L
aL99915120L
aL99985035L
aL99994608L
aL99980224L
aL99960707L
aL99994143L
aL99978664L
aL99960669L
aL99994702L
aL99960661L
aL99985072L
aL99995054L
aL99985303L
aL99960566L
aL99995051L
aL99994804L
aL99915262L
aL99994949L
aL99995123L
aL99995044L
aL99980220L
aL99995133L
aL99995050L
aL99960169L
aL99960642L
aL99995030L
aL99977207L
aL99995834L
aL99994901L
aL99975042L
aL99985212L
aL99994801L
aL99995837L
aL99978931L
aL99960636L
aL99975216L
aL99975038L
aL99995014L
aL99975217L
aL99975243L
aL99975223L
aL99975172L
aL99975207L
aL99975249L
aL99975229L
aL99978705L
aL99975201L
aL99960159L
aL99977027L
aL99977006L
aL99977012L
aL99977017L
aL99977021L
aL99995127L
aL99977025L
aL99977023L
aL99977019L
aL99977009L
aL99961105L
aL99994129L
aL99977044L
aL99977002L
aL99977043L
aL99977504L
aL99977031L
aL99977032L
aL99977068L
aL99960565L
aL99977018L
aL99977489L
aL99975208L
aL99960431L
aL99977075L
aL99977078L
aL99977004L
aL99977045L
aL99985253L
aL99977033L
aL99977030L
aL99975104L
aL99977070L
aL99977076L
aL99977092L
aL99977086L
aL99977094L
aL99977223L
aL99977065L
aL99977064L
aL99977026L
aL99961112L
aL99995042L
aL99946402L
aL99977083L
aL99977046L
aL99977011L
aL99977008L
aL99975390L
aL99977303L
aL99994947L
aL99985208L
aL99994706L
aL99960560L
aL99960655L
aL99977085L
aL99977505L
aL99960922L
aL99994561L
aL99977441L
aL99977091L
aL99960610L
aL99977096L
aL99977451L
aL99977098L
aL99977461L
aL99977305L
aL99960504L
aL99977093L
aL99977503L
aL99933021L
aL99977005L
aL99977486L
aL99977063L
aL99977531L
aL99977385L
aL99960442L
aL99977396L
aL99994598L
aL99977471L
aL99985282L
aL99985302L
aL99960404L
aL99977080L
aL99977577L
aL99977515L
aL99977568L
aL99994803L
aL99985297L
aL99977463L
aL99977473L
aL99960915L
aL99977430L
aL99977565L
aL99977539L
aL99994960L
aL99960434L
aL99977433L
aL99977502L
aL99977665L
aL99977338L
aL99977418L
aL99977506L
aL99977507L
aL99977517L
aL99985353L
aL99977048L
aL99977536L
aL99985345L
aL99977584L
aL99978933L
aL99977036L
aL99977316L
aL99994956L
aL99977546L
aL99975215L
aL99977304L
aL99994123L
aL99960563L
aL99990270L
aL99990245L
aL99990222L
aL99977575L
aL99977480L
aL99960617L
aL99977423L
aL99960133L
aL99990249L
aL99960614L
aL99960653L
aL99977586L
aL99990650L
aL99990805L
aL99990745L
aL99977389L
aL99990755L
aL99980212L
aL99990804L
aL99990731L
aL99977542L
aL99977538L
aL99977431L
aL99978761L
aL99960634L
aL99991040L
aL99990715L
aL99977530L
aL99990701L
aL99977035L
aL99977378L
aL99977028L
aL99995815L
aL99995013L
aL99991330L
aL99977580L
aL99990638L
aL99977024L
aL99990265L
aL99975039L
aL99991188L
aL99977566L
aL99977534L
aL99991205L
aL99960564L
aL99990502L
aL99991204L
aL99985027L
aL99991210L
aL99991410L
aL99992236L
aL99977355L
aL99977533L
aL99991436L
aL99991214L
aL99991335L
aL99977010L
aL99961106L
aL99977365L
aL99960643L
aL99977089L
aL99980211L
aL99991208L
aL99991744L
aL99990303L
aL99991748L
aL99977535L
aL99975051L
aL99991521L
aL99960701L
aL99977464L
aL99995827L
aL99993015L
aL99977514L
aL99990272L
aL99993551L
aL99993022L
aL99960714L
aL99960435L
aL99993066L
aL99978731L
aL99993599L
aL99993035L
aL99980235L
aL99991733L
aL99915237L
aL99993033L
aL99994603L
aL99960601L
aL99992268L
aL99993012L
aL99992284L
aL99990241L
aL99993436L
aL99991356L
aL99960606L
aL99993460L
aL99977040L
aL99960433L
aL99977037L
aL99992252L
aL99992336L
aL99977661L
aL99977039L
aL99994914L
aL99994134L
aL99994925L
aL99992356L
aL99992350L
aL99977422L
aL99992338L
aL99977623L
aL99977007L
aL99994940L
aL99990261L
aL99977315L
aL99992347L
aL99993562L
aL99991320L
aL99992346L
aL99975116L
aL99977571L
aL99992256L
aL99992310L
aL99992329L
aL99994568L
aL99992654L
aL99990630L
aL99992653L
aL99990720L
aL99992614L
aL99992660L
aL99992647L
aL99960680L
aL99992610L
aL99992304L
aL99992657L
aL99992662L
aL99992835L
aL99990742L
aL99992274L
aL99994903L
aL99985387L
aL99992317L
aL99992321L
aL99992692L
aL99992415L
aL99992320L
aL99994939L
aL99993544L
aL99960632L
aL99991343L
aL99991310L
aL99992503L
aL99992404L
aL99961008L
aL99977034L
aL99992318L
aL99992260L
aL99992833L
aL99960441L
aL99992551L
aL99992548L
aL99933315L
aL99992649L
aL99992543L
aL99985203L
aL99992592L
aL99933032L
aL99933145L
aL99992646L
aL99933129L
aL99977041L
aL99992220L
aL99933155L
aL99933141L
aL99933162L
aL99933161L
aL99992570L
aL99993254L
aL99933031L
aL99992341L
aL99977016L
aL99933312L
aL99977306L
aL99975251L
aL99933414L
aL99933334L
aL99992704L
aL99933444L
aL99933430L
aL99993440L
aL99933404L
aL99933424L
aL99992587L
aL99933480L
aL99992521L
aL99933431L
aL99975043L
aL99992316L
aL99990710L
aL99933493L
aL99933185L
aL99992555L
aL99992323L
aL99993036L
aL99992650L
aL99910045L
aL30598L
aL99910111L
aL99977003L
aL99992617L
aL99910171L
aL99977038L
aL99933498L
aL99992655L
aL99910176L
aL99933183L
aL99910036L
aL99933438L
aL99977020L
aL99910280L
aL99933487L
aL99977047L
aL99910451L
aL99911209L
aL99993434L
aL99975210L
aL99977042L
aL99933133L
aL99977081L
aL99911218L
aL99977022L
aL99911235L
aL99992651L
aL99933407L
aL99992357L
aL99911364L
aL99992637L
aL99933460L
aL99990007L
aL99933151L
aL99911430L
aL99911366L
aL99977476L
aL99992518L
aL99910307L
aL99960647L
aL99933330L
aL99911356L
aL99911239L
aL99933139L
aL99977029L
aL99910301L
aL99933420L
aL99911419L
aL99932703L
aL99933306L
aL99911219L
aL99977071L
aL99932777L
aL99911206L
aL99911102L
aL99932735L
aL99994710L
aL99932798L
aL99911695L
aL99992116L
aL99932805L
aL99977520L
aL99932789L
aL99911692L
aL99911238L
aL99932765L
aL99910128L
aL99977493L
aL99910007L
aL99997208L
aL99977377L
aL99992056L
aL99994957L
aL99977073L
aL99992344L
aL99992114L
aL99997205L
aL99991902L
aL99991915L
aL99991313L
aL99911228L
aL99960615L
aL99990023L
aL99992628L
aL99934741L
aL99997024L
aL99997220L
aL99992658L
aL99997227L
aL99992110L
aL99932772L
aL99992111L
aL99923220L
aL99992561L
aL99997202L
aL99923250L
aL99991932L
aL99923225L
aL99997217L
aL99933124L
aL99977386L
aL99990747L
aL99998104L
aL99990723L
aL99933015L
aL99933454L
aL99998164L
aL99998065L
aL99998146L
aL99923224L
aL99998134L
aL99998224L
aL99933173L
aL99998040L
aL99998053L
aL99998087L
aL99998011L
aL99998108L
aL99998166L
aL99998136L
aL99998043L
aL99998003L
aL99998199L
aL99998374L
aL99998373L
aL99998403L
aL99992590L
aL99998004L
aL99990255L
aL99998074L
aL151772L
aL99990640L
aL99998404L
aL99991201L
aL99998077L
aL99933308L
aL99998116L
aL99998418L
aL99998208L
aL99933311L
aL99998349L
aL99923234L
aL99998433L
aL99998119L
aL99998321L
aL99998438L
aL99933068L
aL99998118L
aL99998447L
aL99998443L
aL99933445L
aL99991383L
aL99998408L
aL99998072L
aL99998498L
aL99998154L
aL99920024L
aL99920227L
aL99998323L
aL99920373L
aL99920245L
aL99910040L
aL99920216L
aL99933433L
aL99933069L
aL99920536L
aL99920553L
aL99975219L
aL99998333L
aL99998252L
aL99998335L
aL99994404L
aL99920202L
aL99920590L
aL99998144L
aL99998558L
aL99933167L
aL99992106L
aL99998424L
aL99998006L
aL99920418L
aL99998207L
aL99911234L
aL99920008L
aL99991042L
aL99933189L
aL99998121L
aL99992234L
aL99998052L
aL99977325L
aL99977346L
aL99998385L
aL99993458L
aL99998092L
aL99977598L
aL99992105L
aL99992120L
aL99998351L
aL99920425L
aL99920011L
aL99920535L
aL99933468L
aL99997215L
aL99998329L
aL99998304L
aL99998174L
aL99933178L
aL99994963L
aL99911367L
aL99933027L
aL99998241L
aL99933328L
aL99998058L
aL99910103L
aL99992832L
aL99998327L
aL99933039L
aL99933024L
aL99992078L
aL99932835L
aL99911104L
aL99998038L
aL99932812L
aL99997212L
aL99998002L
aL99998168L
aL99920544L
aL99995033L
aL99998354L
aL99910115L
aL99993552L
aL417578L
aL275248L
aL275770L
aL267899L
aL274403L
aL417551L
aL267897L
aL267896L
aL417562L
aL275975L
aL417696L
aL276287L
aL417557L
aL274480L
aL276556L
aL417004L
aL272797L
aL275201L
aL276037L
aL275146L
aL276589L
aL276590L
aL417584L
aL273229L
aL273616L
aL273345L
aL276022L
aL417640L
aL417580L
aL275573L
aL276175L
aL417693L
aL273139L
aL276496L
aL276451L
aL273539L
aL417579L
aL275737L
aL268406L
aL417620L
aL273032L
aL268473L
aL275853L
aL273572L
aL268537L
aL273088L
aL268523L
aL268548L
aL110257L
aL274699L
aL268489L
aL274056L
aL276558L
aL273571L
aL417057L
aL417629L
aL274016L
aL274358L
aL417529L
aL417679L
aL417581L
aL268348L
aL274340L
aL268335L
aL274559L
aL275922L
aL274741L
aL274392L
aL272713L
aL274359L
aL274828L
aL268416L
aL274256L
aL275011L
aL268605L
aL274895L
aL273307L
aL417550L
aL276286L
aL109943L
aL417665L
aL275869L
aL268506L
aL417003L
aL268570L
aL273714L
aL274995L
aL272806L
aL273355L
aL417576L
aL417633L
aL268450L
aL268438L
aL275243L
aL274549L
aL417591L
aL272706L
aL268429L
aL272885L
aL273092L
aL268604L
aL275254L
aL272349L
aL275186L
aL268488L
aL268385L
aL272808L
aL417548L
aL275377L
aL267967L
aL267891L
aL273059L
aL272758L
aL275396L
aL272766L
aL272933L
aL275621L
aL275451L
aL417691L
aL268581L
aL417683L
aL272751L
aL273301L
aL273528L
aL268483L
aL268572L
aL274293L
aL275915L
aL111950L
aL273068L
aL275210L
aL273394L
aL396586L
aL272940L
aL274930L
aL275496L
aL417645L
aL273182L
aL268500L
aL273594L
aL276357L
aL272725L
aL275580L
aL268333L
aL275579L
aL275827L
aL273509L
aL268453L
aL273567L
aL268551L
aL273794L
aL276507L
aL273257L
aL268600L
aL272852L
aL275845L
aL273486L
aL268419L
aL275994L
aL417650L
aL417010L
aL273609L
aL276145L
aL273834L
aL273400L
aL273129L
aL268462L
aL272912L
aL274580L
aL272978L
aL275221L
aL274364L
aL417582L
aL417732L
aL273846L
aL267895L
aL274514L
aL417682L
aL273836L
aL273988L
aL275214L
aL274247L
aL275997L
aL274277L
aL268334L
aL272968L
aL276530L
aL417623L
aL417617L
aL273617L
aL274422L
aL273140L
aL416307L
aL274052L
aL275126L
aL274553L
aL276042L
aL274961L
aL417516L
aL267892L
aL272969L
aL268478L
aL416977L
aL268546L
aL412298L
aL273788L
aL276280L
aL273237L
aL276560L
aL274857L
aL417501L
aL273389L
aL416707L
aL417670L
aL273957L
aL276529L
aL417572L
aL273197L
aL417532L
aL273272L
aL274145L
aL416988L
aL276554L
aL416889L
aL268564L
aL203441L
aL273009L
aL276522L
aL417006L
aL417095L
aL275387L
aL416893L
aL417499L
aL416991L
aL416989L
aL273586L
aL417517L
aL417097L
aL274108L
aL417704L
aL276204L
aL417090L
aL268351L
aL417089L
aL273100L
aL417497L
aL273690L
aL417008L
aL737997L
aL274171L
aL417507L
aL417494L
aL416992L
aL276238L
aL274932L
aL416345L
aL417684L
aL417495L
aL417526L
aL737810L
aL272712L
aL417688L
aL276139L
aL275222L
aL738014L
aL417001L
aL737996L
aL417093L
aL417077L
aL738012L
aL273611L
aL112295L
aL275078L
aL417506L
aL416306L
aL417515L
aL268565L
aL203725L
aL417520L
aL417224L
aL268350L
aL417220L
aL417011L
aL274933L
aL416978L
aL268511L
aL268383L
aL417492L
aL275212L
aL417566L
aL273729L
aL698715L
aL417509L
aL276284L
aL268417L
aL623421L
aL417708L
aL417080L
aL417709L
aL417685L
aL275689L
aL268469L
aL275177L
aL416972L
aL417005L
aL275127L
aL417697L
aL273105L
aL273359L
aL417710L
aL274029L
aL416894L
aL104898L
aL417524L
aL272922L
aL272841L
aL274586L
aL343384L
aL416890L
aL623382L
aL273752L
aL269008L
aL273179L
aL417542L
aL275286L
aL152379L
aL273320L
aL416987L
aL272875L
aL416876L
aL416994L
aL274442L
aL275165L
aL273041L
aL274536L
aL273297L
aL273315L
aL273146L
aL417053L
aL275149L
aL417088L
aL273808L
aL273503L
aL623420L
aL416337L
aL276028L
aL273273L
aL738000L
aL276024L
aL273851L
aL268176L
aL275930L
aL41466L
aL274975L
aL417653L
aL273828L
aL28119L
aL274185L
aL275511L
aL272924L
aL275258L
aL27328L
aL274625L
aL276017L
aL417091L
aL417556L
aL268588L
aL273416L
aL113455L
aL275662L
aL118541L
aL275464L
aL118872L
aL275340L
aL48200L
aL115609L
aL273837L
aL54300L
aL275678L
aL113657L
aL116638L
aL275543L
aL46087L
aL117174L
aL116774L
aL273466L
aL273935L
aL117224L
aL276235L
aL275229L
aL118987L
aL116856L
aL47950L
aL272957L
aL416974L
aL416975L
aL118208L
aL417706L
aL274253L
aL274970L
aL275695L
aL275903L
aL115629L
aL273023L
aL274494L
aL268585L
aL416906L
aL274249L
aL417596L
aL233162L
aL27987L
aL738013L
aL256657L
aL251072L
aL33183L
aL258802L
aL268582L
aL275861L
aL274246L
aL118849L
aL50415L
aL268517L
aL268024L
aL268058L
aL276062L
aL274023L
aL268057L
aL273631L
aL268042L
aL417513L
aL118825L
aL268141L
aL268156L
aL255961L
aL268126L
aL268076L
aL268209L
aL273807L
aL274527L
aL268223L
aL117447L
aL268256L
aL273073L
aL275979L
aL268323L
aL272963L
aL254627L
aL274119L
aL268242L
aL260525L
aL268007L
aL268259L
aL268426L
aL268310L
aL276454L
aL268241L
aL268392L
aL118673L
aL261343L
aL268308L
aL268409L
aL268258L
aL264676L
aL268240L
aL266998L
aL274262L
aL267995L
aL268046L
aL260524L
aL268477L
aL417522L
aL117724L
aL274705L
aL268174L
aL268001L
aL273508L
aL268055L
aL267997L
aL268062L
aL268491L
aL268034L
aL268103L
aL268602L
aL273868L
aL268035L
aL268010L
aL268121L
aL269719L
aL268410L
aL268002L
aL268541L
aL268507L
aL275687L
aL268525L
aL268257L
aL268119L
aL268309L
aL268026L
aL268082L
aL417703L
aL268020L
aL268160L
aL268136L
aL268129L
aL268066L
aL268102L
aL268178L
aL416879L
aL268041L
aL268052L
aL268078L
aL268560L
aL268164L
aL268011L
aL268177L
aL268032L
aL268145L
aL268015L
aL276215L
aL268114L
aL191799L
aL28014L
aL268118L
aL274698L
aL117892L
aL268134L
aL268184L
aL268153L
aL268200L
aL273287L
aL268391L
aL268239L
aL268150L
aL207518L
aL268106L
aL268303L
aL268201L
aL118995L
aL268182L
aL272930L
aL417648L
aL273559L
aL268494L
aL268289L
aL268003L
aL273825L
aL268559L
aL268295L
aL268328L
aL268329L
aL268099L
aL268485L
aL268353L
aL272804L
aL268244L
aL268288L
aL268304L
aL274493L
aL48570L
aL268464L
aL268236L
aL417543L
aL273404L
aL268404L
aL268287L
aL274622L
aL273719L
aL274654L
aL343229L
aL274504L
aL268443L
aL273252L
aL623381L
aL417079L
aL268330L
aL268611L
aL268414L
aL274872L
aL274765L
aL268086L
aL416877L
aL417510L
aL273330L
aL268269L
aL268297L
aL273665L
aL276582L
aL268247L
aL273633L
aL268096L
aL417527L
aL275113L
aL273830L
aL343246L
aL274066L
aL275405L
aL273674L
aL275773L
aL268339L
aL273538L
aL274659L
aL275598L
aL268279L
aL268208L
aL275288L
aL417092L
aL343245L
aL268405L
aL273930L
aL117183L
aL275482L
aL273263L
aL268384L
aL268577L
aL275215L
aL274582L
aL274164L
aL343249L
aL275716L
aL275683L
aL268206L
aL274800L
aL275567L
aL273789L
aL116647L
aL268253L
aL268393L
aL273480L
aL268338L
aL275207L
aL275216L
aL274684L
aL274940L
aL275333L
aL343247L
aL275481L
aL343613L
aL403195L
aL274517L
aL275824L
aL268316L
aL274735L
aL274750L
aL268579L
aL267994L
aL275826L
aL268045L
aL268337L
aL416980L
aL274049L
aL276207L
aL275581L
aL276593L
aL275856L
aL276508L
aL274284L
aL343242L
aL276092L
aL268205L
aL275583L
aL268185L
aL268607L
aL275284L
aL275237L
aL268403L
aL275313L
aL403230L
aL268273L
aL274214L
aL276428L
aL274756L
aL275401L
aL276318L
aL275067L
aL343250L
aL274149L
aL269698L
aL273890L
aL268037L
aL417502L
aL343604L
aL268250L
aL274184L
aL276478L
aL274577L
aL343602L
aL276476L
aL343952L
aL268382L
aL275470L
aL275130L
aL276036L
aL273915L
aL269445L
aL43946L
aL416331L
aL276121L
aL343619L
aL274513L
aL343611L
aL276151L
aL272850L
aL275721L
aL276450L
aL275886L
aL343252L
aL275306L
aL268336L
aL275388L
aL416976L
aL403250L
aL275937L
aL276023L
aL403248L
aL268097L
aL403232L
aL275688L
aL343610L
aL403191L
aL268248L
aL118842L
aL417078L
aL275426L
aL416884L
aL274836L
aL273925L
aL268110L
aL268187L
aL268441L
aL416312L
aL274910L
aL275111L
aL276256L
aL272742L
aL276258L
aL343612L
aL276423L
aL343620L
aL276457L
aL416967L
aL416965L
aL416330L
aL275789L
aL268442L
aL416175L
aL403245L
aL417563L
aL275857L
aL276606L
aL416706L
aL275738L
aL272886L
aL343237L
aL275300L
aL343234L
aL343233L
aL275817L
aL343244L
aL416329L
aL343951L
aL276439L
aL403183L
aL275331L
aL268365L
aL417016L
aL416320L
aL416983L
aL416316L
aL273565L
aL275840L
aL268583L
aL403237L
aL276122L
aL275785L
aL276302L
aL417081L
aL343942L
aL276533L
aL403231L
aL274134L
aL416334L
aL268249L
aL273816L
aL416997L
aL403192L
aL403196L
aL403238L
aL343251L
aL268130L
aL403251L
aL274551L
aL416302L
aL416880L
aL276116L
aL276637L
aL416318L
aL343505L
aL276620L
aL275137L
aL403243L
aL623377L
aL275268L
aL417082L
aL403184L
aL416308L
aL273986L
aL417083L
aL272756L
aL268771L
aL343621L
aL273433L
aL403513L
aL343228L
aL268689L
aL403254L
aL403514L
aL403512L
aL276486L
aL274882L
aL416319L
aL268268L
aL275684L
aL268712L
aL273468L
aL274552L
aL343608L
aL268773L
aL274158L
aL403509L
aL274454L
aL417100L
aL276363L
aL35525L
aL275091L
aL274306L
aL113036L
aL275242L
aL276364L
aL275257L
aL275128L
aL274564L
aL275061L
aL275386L
aL403142L
aL417099L
aL343253L
aL274609L
aL274507L
aL416178L
aL275024L
aL274631L
aL273349L
aL273940L
aL275996L
aL274525L
aL416883L
aL274588L
aL403190L
aL343607L
aL395973L
aL274137L
aL272805L
aL396576L
aL268516L
aL275685L
aL273020L
aL274061L
aL274529L
aL268380L
aL275989L
aL111617L
aL274949L
aL403240L
aL272737L
aL276214L
aL417098L
aL276401L
aL274612L
aL274829L
aL416900L
aL275013L
aL275411L
aL273585L
aL268100L
aL118887L
aL403516L
aL111550L
aL417930L
aL275542L
aL112275L
aL417955L
aL416998L
aL416177L
aL416066L
aL115729L
aL275179L
aL275174L
aL272801L
aL115326L
aL106234L
aL252028L
aL276074L
aL417699L
aL416999L
aL105745L
aL276198L
aL276640L
aL275594L
aL274815L
aL343614L
aL272768L
aL275480L
aL227971L
aL105758L
aL417912L
aL105769L
aL274383L
aL275428L
aL417700L
aL274695L
aL417947L
aL403197L
aL417949L
aL111818L
aL112661L
aL417915L
aL111854L
aL111972L
aL417861L
aL268352L
aL112272L
aL417698L
aL112342L
aL268396L
aL411347L
aL273439L
aL273268L
aL273951L
aL273641L
aL276170L
aL272891L
aL273319L
aL417895L
aL268762L
aL417942L
aL112345L
aL275512L
aL343609L
aL273109L
aL273122L
aL267919L
aL274371L
aL417943L
aL111394L
aL267908L
aL417844L
aL417879L
aL403515L
aL417084L
aL112218L
aL111869L
aL417772L
aL268490L
aL267954L
aL417718L
aL267900L
aL417741L
aL417956L
aL14041L
aL417743L
aL273809L
aL113128L
aL275884L
aL215929L
aL275564L
aL417716L
aL417101L
aL111413L
aL417763L
aL417948L
aL417715L
aL417754L
aL268594L
aL417775L
aL274742L
aL343241L
aL267978L
aL274496L
aL273435L
aL417757L
aL417719L
aL272760L
aL273407L
aL267977L
aL268568L
aL417433L
aL417015L
aL275892L
aL275040L
aL267934L
aL7314L
aL116213L
aL416336L
aL275454L
aL417519L
aL40629L
aL27484L
aL274918L
aL113713L
aL267932L
aL114074L
aL115133L
aL116539L
aL417500L
aL116914L
aL116035L
aL416338L
aL40215L
aL118920L
aL267931L
aL118211L
aL417837L
aL113079L
aL417734L
aL276419L
aL275263L
aL417733L
aL114283L
aL416874L
aL417911L
aL13327L
aL417713L
aL116646L
aL32059L
aL113736L
aL26134L
aL114649L
aL46736L
aL417851L
aL115622L
aL115003L
aL27431L
aL115022L
aL13176L
aL115657L
aL274618L
aL417870L
aL257661L
aL417885L
aL113749L
aL417884L
aL416363L
aL272947L
aL113305L
aL417951L
aL417094L
aL416995L
aL417087L
aL19810L
aL6018L
aL41131L
aL417020L
aL417935L
aL417950L
aL417219L
aL115774L
aL738016L
aL276656L
aL417498L
aL273470L
aL34213L
aL417702L
aL268542L
aL268395L
aL417723L
aL114905L
aL417514L
aL274915L
aL269678L
aL417836L
aL417914L
aL417496L
aL115122L
aL267909L
aL114490L
aL116784L
aL417705L
aL31817L
aL118015L
aL30731L
aL417766L
aL276652L
aL623380L
aL32368L
aL417707L
aL273453L
aL416985L
aL273652L
aL114808L
aL416315L
aL117021L
aL13017L
aL113886L
aL343606L
aL414571L
aL698713L
aL117980L
aL623424L
aL738002L
aL417933L
aL698711L
aL113507L
aL114914L
aL125698L
aL698712L
aL415247L
aL274641L
aL275131L
aL115447L
aL117770L
aL48516L
aL738005L
aL416996L
aL416304L
aL267926L
aL117804L
aL417954L
aL698709L
aL737809L
aL47880L
aL112547L
aL698716L
aL268496L
aL623419L
aL416993L
aL51906L
aL116026L
aL117557L
aL416317L
aL738006L
aL37835L
aL738010L
aL738001L
aL113509L
aL737808L
aL417946L
aL417021L
aL416309L
aL738008L
aL623423L
aL115372L
aL275792L
aL117954L
aL116921L
aL113688L
aL738003L
aL737998L
aL403517L
aL116918L
aL417505L
aL417717L
aL276185L
aL417085L
aL116415L
aL113444L
aL738017L
aL417528L
aL275958L
aL268562L
aL275422L
aL268095L
aL273901L
aL272728L
aL46795L
aL274781L
aL268379L
aL115240L
aL274916L
aL342762L
aL275084L
aL274717L
aL45228L
aL273080L
aL114292L
aL623378L
aL114961L
aL21056L
aL417711L
aL46793L
aL121705L
aL118387L
aL274804L
aL116625L
aL403253L
aL40548L
aL416070L
aL268373L
aL416076L
aL342737L
aL254711L
aL416074L
aL416092L
aL275961L
aL342771L
aL416080L
aL342742L
aL342744L
aL416101L
aL112261L
aL416088L
aL416085L
aL268683L
aL342741L
aL342780L
aL416067L
aL342738L
aL342743L
aL416117L
aL268051L
aL268219L
aL342759L
aL416094L
aL342763L
aL417726L
aL342745L
aL342761L
aL416126L
aL342777L
aL268790L
aL416071L
aL342752L
aL268085L
aL342747L
aL342786L
aL268104L
aL342788L
aL274879L
aL342767L
aL417804L
aL403510L
aL342765L
aL417795L
aL342753L
aL342773L
aL342757L
aL342749L
aL342783L
aL342769L
aL117879L
aL342784L
aL268220L
aL268544L
aL237961L
aL342754L
aL275430L
aL417805L
aL342785L
aL121419L
aL342766L
aL416083L
aL342781L
aL268198L
aL268703L
aL268795L
aL403511L
aL403153L
aL199067L
aL342746L
aL738015L
aL268797L
aL268785L
aL416881L
aL623422L
aL396805L
aL52070L
aL343230L
aL116828L
aL274667L
aL268222L
aL268635L
aL268633L
aL342750L
aL268768L
aL268643L
aL121674L
aL42385L
aL252303L
aL12803L
aL55955L
aL121726L
aL273540L
aL121756L
aL121771L
aL342751L
aL275129L
aL121785L
aL268659L
aL416399L
aL268615L
aL6952L
aL276487L
aL275784L
aL342768L
aL268652L
aL268704L
aL342760L
aL342778L
aL121701L
aL268617L
aL268632L
aL268613L
aL121740L
aL121687L
aL275916L
aL268628L
aL268743L
aL273956L
aL40932L
aL268618L
aL268673L
aL268666L
aL268760L
aL121689L
aL124076L
aL268772L
aL268674L
aL268614L
aL121675L
aL268671L
aL416102L
aL342756L
aL268774L
aL43893L
aL268644L
aL276157L
aL273713L
aL276657L
aL121710L
aL268672L
aL274014L
aL121762L
aL268761L
aL121373L
aL272767L
aL121681L
aL121489L
aL268742L
aL268657L
aL417812L
aL121402L
aL268776L
aL268778L
aL342779L
aL276646L
aL343945L
aL50155L
aL120957L
aL268638L
aL121248L
aL45614L
aL119762L
aL121676L
aL272897L
aL275098L
aL416112L
aL268731L
aL273494L
aL268759L
aL268775L
aL268720L
aL121717L
aL268777L
aL275118L
aL411767L
aL268740L
aL121628L
aL121075L
aL275991L
aL26056L
aL396804L
aL416086L
aL398560L
aL396782L
aL121553L
aL268637L
aL268787L
aL403498L
aL121733L
aL272772L
aL416078L
aL121750L
aL268832L
aL121682L
aL403507L
aL125932L
aL416303L
aL121698L
aL121716L
aL121765L
aL126071L
aL121697L
aL417240L
aL126306L
aL268784L
aL121767L
aL126230L
aL121748L
aL268865L
aL263124L
aL126709L
aL276312L
aL268938L
aL121731L
aL126481L
aL37550L
aL268956L
aL268947L
aL27371L
aL121714L
aL274771L
aL342787L
aL269097L
aL269015L
aL396825L
aL269004L
aL126264L
aL268612L
aL269113L
aL269163L
aL269088L
aL273676L
aL275794L
aL121683L
aL269172L
aL269131L
aL272929L
aL268881L
aL268872L
aL121744L
aL403486L
aL276536L
aL121797L
aL268803L
aL121800L
aL269072L
aL275681L
aL126155L
aL269115L
aL403497L
aL269147L
aL268899L
aL269090L
aL126648L
aL113872L
aL117156L
aL403496L
aL121718L
aL121670L
aL416966L
aL269022L
aL121815L
aL269174L
aL121816L
aL268390L
aL269158L
aL269133L
aL121727L
aL269006L
aL121788L
aL403116L
aL121677L
aL269029L
aL268999L
aL121679L
aL276144L
aL268801L
aL273415L
aL121777L
aL121745L
aL273934L
aL121754L
aL403242L
aL121786L
aL121686L
aL121709L
aL121668L
aL272997L
aL272984L
aL121806L
aL416079L
aL274335L
aL251950L
aL275439L
aL275465L
aL272887L
aL273489L
aL274550L
aL17526L
aL268831L
aL272818L
aL121695L
aL121759L
aL121774L
aL343451L
aL267875L
aL416073L
aL275367L
aL269718L
aL343962L
aL269165L
aL275035L
aL274233L
aL273842L
aL268965L
aL273514L
aL276435L
aL274225L
aL273476L
aL268124L
aL416099L
aL273756L
aL343969L
aL273148L
aL268815L
aL403481L
aL273192L
aL268997L
aL274774L
aL342782L
aL268915L
aL269228L
aL342755L
aL342772L
aL268874L
aL273159L
aL268990L
aL121779L
aL269181L
aL342764L
aL124381L
aL124750L
aL269049L
aL125218L
aL124178L
aL274719L
aL342774L
aL273201L
aL121791L
aL417756L
aL343442L
aL123423L
aL274794L
aL55111L
aL126069L
aL125172L
aL126488L
aL126585L
aL124847L
aL6219L
aL125884L
aL123600L
aL125953L
aL342758L
aL417728L
aL126471L
aL124713L
aL126218L
aL125917L
aL124618L
aL274749L
aL126236L
aL125047L
aL274785L
aL124820L
aL124025L
aL124652L
aL124914L
aL275500L
aL125152L
aL276446L
aL123471L
aL125198L
aL124600L
aL403501L
aL275888L
aL207543L
aL125181L
aL123871L
aL124309L
aL275669L
aL126149L
aL123468L
aL123888L
aL273501L
aL275178L
aL269223L
aL56772L
aL12330L
aL273356L
aL273378L
aL123748L
aL273803L
aL275987L
aL158566L
aL269086L
aL269106L
aL343322L
aL276539L
aL125663L
aL417144L
aL343306L
aL125397L
aL25125L
aL274976L
aL268974L
aL417162L
aL274678L
aL274671L
aL117654L
aL126056L
aL121702L
aL7877L
aL124268L
aL55477L
aL268972L
aL275189L
aL27080L
aL275205L
aL274687L
aL275630L
aL268702L
aL118904L
aL121799L
aL623401L
aL274948L
aL274130L
aL343473L
aL753731L
aL275645L
aL126258L
aL275076L
aL343454L
aL275457L
aL416190L
aL274666L
aL269209L
aL276329L
aL407493L
aL417157L
aL121672L
aL275455L
aL417141L
aL275162L
aL416132L
aL417126L
aL416131L
aL37739L
aL417160L
aL343968L
aL405029L
aL417156L
aL417142L
aL417176L
aL276347L
aL417174L
aL124797L
aL125257L
aL121719L
aL417185L
aL268636L
aL275663L
aL124505L
aL125594L
aL126242L
aL124725L
aL125593L
aL123986L
aL126045L
aL125993L
aL417158L
aL124905L
aL126162L
aL125021L
aL276638L
aL126644L
aL124085L
aL125455L
aL416182L
aL276585L
aL273517L
aL416372L
aL125141L
aL125591L
aL124921L
aL124860L
aL275615L
aL123667L
aL343974L
aL269215L
aL124243L
aL343474L
aL124802L
aL417883L
aL124578L
aL268870L
aL23566L
aL403123L
aL268918L
aL623410L
aL268934L
aL124173L
aL417171L
aL269190L
aL121680L
aL124508L
aL276639L
aL268927L
aL125500L
aL342748L
aL268951L
aL268284L
aL268985L
aL416364L
aL268983L
aL126042L
aL126341L
aL13295L
aL276429L
aL268882L
aL268987L
aL124662L
aL268970L
aL268646L
aL268690L
aL268944L
aL269053L
aL273481L
aL343970L
aL268962L
aL268958L
aL268887L
aL124811L
aL125976L
aL268896L
aL268873L
aL268959L
aL124024L
aL268912L
aL268992L
aL126395L
aL268950L
aL268878L
aL121729L
aL125623L
aL416362L
aL268977L
aL738004L
aL268688L
aL416179L
aL269012L
aL268919L
aL269075L
aL123765L
aL268895L
aL274424L
aL268889L
aL268995L
aL268980L
aL114246L
aL113910L
aL268982L
aL123507L
aL269018L
aL623406L
aL269067L
aL269011L
aL265170L
aL269206L
aL417131L
aL268875L
aL268946L
aL417183L
aL268867L
aL417164L
aL623408L
aL116302L
aL269092L
aL416184L
aL38888L
aL738039L
aL125478L
aL268964L
aL274072L
aL417134L
aL120904L
aL268893L
aL269233L
aL417201L
aL269208L
aL417167L
aL125044L
aL274376L
aL268936L
aL417137L
aL416375L
aL417127L
aL121211L
aL47031L
aL268925L
aL116334L
aL417172L
aL738046L
aL269062L
aL417133L
aL417170L
aL417147L
aL269026L
aL623416L
aL126639L
aL269101L
aL269002L
aL46782L
aL417119L
aL56823L
aL268957L
aL273260L
aL13079L
aL121763L
aL342740L
aL275230L
aL417135L
aL275820L
aL268933L
aL149190L
aL273327L
aL124967L
aL275746L
aL269135L
aL269094L
aL269153L
aL269095L
aL268955L
aL273418L
aL738048L
aL125649L
aL269129L
aL269185L
aL274122L
aL273575L
aL269144L
aL268876L
aL273380L
aL269142L
aL623402L
aL121410L
aL268906L
aL417163L
aL269160L
aL269064L
aL269071L
aL417186L
aL269014L
aL269177L
aL274763L
aL269082L
aL269105L
aL274229L
aL274036L
aL268984L
aL269220L
aL275299L
aL269103L
aL269116L
aL416186L
aL416366L
aL417132L
aL738050L
aL269136L
aL268979L
aL126244L
aL269066L
aL269219L
aL274004L
aL269346L
aL269184L
aL403488L
aL269293L
aL269043L
aL274947L
aL343271L
aL269446L
aL269246L
aL269277L
aL269176L
aL269118L
aL269093L
aL623404L
aL737821L
aL275471L
aL269130L
aL273452L
aL269285L
aL268621L
aL127629L
aL269125L
aL269186L
aL269406L
aL128381L
aL269422L
aL269123L
aL273314L
aL269452L
aL403405L
aL269408L
aL274286L
aL274592L
aL738047L
aL274847L
aL276516L
aL131132L
aL403466L
aL276119L
aL269374L
aL129333L
aL273645L
aL269207L
aL274926L
aL269180L
aL269173L
aL343466L
aL274226L
aL403487L
aL276391L
aL738049L
aL267898L
aL275890L
aL274237L
aL737824L
aL272884L
aL276643L
aL343981L
aL125385L
aL268989L
aL273437L
aL272879L
aL269236L
aL38625L
aL123594L
aL343966L
aL123612L
aL403518L
aL399510L
aL269201L
aL416370L
aL343984L
aL273171L
aL343331L
aL275682L
aL125604L
aL417124L
aL343352L
aL275490L
aL125695L
aL343459L
aL343436L
aL343963L
aL272949L
aL738051L
aL416374L
aL417125L
aL275988L
aL275635L
aL34387L
aL125531L
aL269430L
aL274917L
aL738058L
aL273939L
aL274892L
aL274243L
aL121755L
aL272720L
aL273801L
aL269198L
aL130182L
aL269021L
aL269409L
aL269306L
aL276350L
aL269457L
aL343434L
aL274462L
aL269360L
aL269435L
aL269398L
aL268783L
aL269007L
aL121761L
aL130303L
aL737815L
aL269310L
aL131360L
aL753718L
aL275161L
aL126043L
aL273997L
aL124222L
aL133207L
aL274304L
aL123890L
aL403121L
aL343428L
aL274409L
aL272733L
aL126511L
aL274206L
aL276488L
aL121685L
aL343427L
aL275825L
aL273490L
aL273597L
aL417182L
aL121693L
aL271578L
aL269036L
aL268935L
aL269392L
aL132791L
aL269240L
aL268903L
aL126292L
aL132606L
aL272907L
aL275163L
aL273764L
aL269465L
aL274565L
aL268877L
aL268664L
aL276442L
aL417165L
aL268942L
aL417151L
aL269084L
aL273564L
aL275963L
aL343429L
aL116266L
aL127516L
aL127281L
aL127432L
aL269447L
aL274129L
aL273500L
aL269255L
aL120704L
aL417181L
aL403400L
aL128253L
aL269518L
aL403171L
aL130438L
aL126858L
aL269330L
aL124944L
aL276240L
aL269386L
aL269487L
aL269391L
aL269298L
aL269397L
aL269325L
aL269407L
aL34257L
aL269405L
aL269323L
aL272817L
aL127692L
aL127407L
aL403493L
aL269505L
aL269513L
aL269486L
aL417023L
aL738043L
aL272981L
aL269258L
aL121780L
aL274000L
aL269361L
aL276400L
aL269501L
aL273604L
aL269490L
aL269451L
aL269508L
aL127423L
aL269475L
aL269506L
aL268945L
aL276432L
aL276041L
aL272898L
aL274472L
aL269195L
aL269507L
aL416857L
aL269087L
aL269498L
aL269560L
aL269525L
aL136483L
aL623405L
aL269547L
aL269483L
aL269494L
aL268662L
aL275499L
aL269332L
aL269096L
aL269553L
aL269515L
aL416069L
aL269565L
aL28173L
aL269058L
aL51847L
aL269559L
aL269536L
aL269589L
aL137799L
aL137634L
aL7930L
aL269056L
aL269607L
aL269615L
aL138129L
aL403475L
aL275083L
aL269614L
aL273111L
aL269603L
aL403258L
aL269609L
aL273000L
aL403299L
aL140024L
aL274579L
aL403283L
aL269221L
aL269591L
aL269540L
aL269526L
aL403276L
aL403292L
aL403356L
aL276349L
aL403365L
aL403317L
aL137841L
aL403358L
aL403301L
aL403367L
aL403322L
aL273498L
aL403374L
aL403290L
aL403376L
aL273222L
aL138732L
aL403117L
aL403109L
aL128368L
aL151016L
aL275049L
aL130878L
aL403263L
aL269605L
aL269613L
aL138261L
aL133535L
aL403146L
aL403279L
aL403278L
aL276138L
aL272951L
aL403277L
aL403346L
aL403168L
aL403312L
aL403268L
aL403378L
aL269218L
aL116206L
aL403255L
aL132112L
aL403288L
aL269311L
aL417022L
aL403320L
aL403336L
aL403287L
aL269532L
aL403304L
aL403286L
aL403372L
aL403311L
aL268779L
aL403141L
aL399378L
aL274198L
aL274178L
aL7457L
aL276477L
aL403352L
aL403342L
aL403259L
aL276291L
aL403296L
aL403148L
aL403402L
aL403379L
aL403257L
aL269600L
aL275927L
aL403323L
aL403298L
aL403264L
aL403275L
aL403295L
aL273964L
aL273040L
aL403377L
aL403334L
aL121704L
aL403361L
aL403308L
aL403303L
aL190514L
aL276495L
aL269590L
aL276500L
aL403373L
aL403169L
aL403305L
aL403314L
aL276668L
aL403282L
aL403325L
aL276268L
aL403151L
aL269489L
aL403363L
aL403297L
aL274899L
aL343369L
aL275515L
aL273670L
aL275029L
aL264485L
aL343959L
aL132047L
aL269437L
aL273737L
aL416192L
aL269234L
aL275876L
aL623403L
aL403152L
aL269529L
aL403395L
aL275957L
aL269492L
aL273840L
aL403281L
aL274850L
aL269563L
aL403120L
aL416183L
aL275329L
aL269602L
aL274162L
aL403333L
aL403315L
aL273035L
aL403280L
aL276165L
aL343378L
aL133141L
aL269592L
aL269585L
aL269597L
aL269579L
aL124991L
aL140913L
aL269593L
aL269345L
aL269611L
aL269238L
aL269580L
aL269587L
aL269608L
aL269572L
aL269582L
aL128864L
aL269070L
aL273669L
aL269578L
aL140437L
aL269567L
aL269586L
aL142801L
aL144430L
aL268885L
aL403307L
aL417200L
aL269599L
aL753786L
aL753784L
aL274271L
aL26392L
aL753777L
aL33420L
aL269576L
aL273693L
aL753761L
aL275976L
aL10674L
aL274715L
aL48678L
aL269584L
aL269570L
aL141430L
aL144216L
aL264525L
aL206775L
aL753783L
aL276327L
aL753776L
aL269610L
aL753794L
aL141127L
aL272983L
aL274457L
aL753785L
aL143518L
aL202587L
aL263070L
aL753773L
aL143038L
aL753763L
aL753712L
aL273852L
aL269566L
aL268871L
aL753792L
aL753795L
aL209621L
aL753771L
aL269436L
aL264490L
aL753781L
aL141408L
aL269502L
aL55576L
aL145754L
aL269416L
aL6832L
aL269478L
aL753709L
aL274089L
aL141956L
aL276265L
aL275410L
aL142087L
aL269085L
aL753762L
aL273869L
aL269481L
aL274034L
aL274215L
aL144204L
aL270033L
aL274921L
aL273408L
aL753780L
aL269151L
aL753770L
aL276447L
aL275836L
aL274484L
aL273558L
aL275563L
aL276482L
aL269596L
aL275105L
aL403122L
aL273549L
aL142706L
aL276316L
aL141850L
aL753710L
aL403310L
aL275622L
aL136485L
aL276338L
aL403309L
aL271577L
aL140292L
aL269524L
aL269555L
aL269538L
aL269179L
aL139408L
aL206781L
aL269588L
aL129705L
aL403414L
aL273361L
aL738082L
aL403300L
aL738081L
aL275421L
aL738077L
aL403265L
aL738075L
aL403267L
aL412385L
aL24947L
aL269214L
aL753788L
aL23117L
aL753764L
aL272937L
aL411349L
aL276481L
aL15191L
aL753779L
aL403306L
aL738085L
aL149393L
aL753775L
aL274922L
aL396747L
aL147673L
aL147968L
aL267922L
aL148041L
aL275265L
aL417025L
aL269577L
aL148179L
aL269235L
aL737805L
aL269194L
aL150474L
aL272865L
aL273284L
aL737804L
aL146388L
aL272999L
aL51128L
aL28723L
aL269539L
aL274200L
aL403340L
aL273948L
aL276375L
aL273805L
aL275223L
aL273599L
aL273286L
aL275352L
aL274180L
aL271028L
aL149371L
aL149902L
aL274106L
aL273008L
aL274965L
aL275072L
aL275270L
aL275791L
aL403313L
aL274960L
aL273399L
aL148091L
aL276566L
aL269276L
aL275673L
aL417032L
aL269396L
aL276359L
aL142234L
aL403343L
aL276218L
aL148756L
aL276388L
aL273107L
aL273231L
aL274884L
aL403318L
aL274683L
aL273243L
aL753735L
aL403360L
aL121807L
aL274107L
aL753772L
aL273236L
aL273780L
aL275021L
aL274650L
aL272795L
aL259374L
aL274028L
aL403145L
aL343390L
aL738040L
aL13094L
aL276158L
aL274316L
aL269381L
aL272746L
aL273374L
aL343371L
aL273227L
aL403266L
aL403284L
aL269612L
aL403271L
aL275905L
aL403404L
aL138166L
aL275510L
aL274473L
aL275251L
aL403375L
aL142540L
aL269516L
aL273949L
aL275790L
aL269648L
aL275197L
aL33597L
aL276367L
aL753728L
aL273048L
aL269711L
aL274065L
aL272821L
aL269714L
aL147093L
aL275446L
aL269548L
aL272905L
aL151754L
aL273536L
aL273818L
aL272833L
aL269689L
aL276483L
aL275632L
aL269703L
aL269708L
aL274660L
aL269737L
aL274240L
aL273787L
aL403262L
aL125595L
aL274502L
aL276200L
aL146756L
aL273367L
aL343477L
aL269738L
aL343488L
aL403351L
aL275486L
aL152275L
aL274080L
aL343482L
aL343481L
aL343495L
aL274434L
aL753740L
aL343490L
aL273291L
aL403302L
aL269364L
aL343497L
aL153338L
aL343503L
aL274294L
aL110229L
aL152218L
aL343489L
aL269200L
aL753727L
aL276182L
aL264027L
aL753726L
aL151031L
aL151010L
aL22649L
aL269571L
aL275138L
aL753746L
aL153755L
aL151266L
aL269595L
aL152428L
aL753745L
aL753736L
aL273116L
aL269717L
aL276621L
aL753734L
aL154455L
aL753742L
aL152605L
aL152610L
aL143591L
aL274775L
aL30681L
aL275199L
aL154868L
aL276445L
aL274450L
aL268917L
aL267629L
aL273050L
aL269734L
aL155354L
aL156044L
aL343430L
aL273003L
aL155852L
aL40792L
aL343492L
aL26204L
aL753729L
aL343491L
aL276014L
aL155158L
aL213914L
aL275900L
aL22899L
aL753724L
aL276436L
aL51820L
aL274508L
aL753725L
aL151824L
aL269723L
aL135646L
aL155995L
aL343484L
aL54232L
aL753739L
aL273266L
aL154970L
aL155506L
aL753738L
aL273181L
aL36371L
aL343480L
aL343487L
aL262232L
aL275942L
aL272755L
aL276331L
aL416396L
aL753732L
aL275429L
aL343501L
aL154235L
aL46015L
aL155281L
aL155633L
aL153980L
aL155615L
aL155167L
aL753796L
aL753774L
aL623418L
aL154399L
aL30680L
aL276411L
aL43269L
aL154418L
aL274058L
aL55277L
aL54490L
aL275364L
aL157423L
aL43748L
aL10171L
aL274160L
aL275056L
aL269694L
aL159728L
aL31341L
aL275617L
aL157180L
aL48366L
aL159951L
aL753760L
aL160182L
aL159130L
aL155188L
aL160965L
aL163581L
aL163763L
aL417026L
aL55130L
aL276370L
aL158479L
aL11206L
aL159490L
aL160124L
aL159624L
aL753782L
aL738079L
aL157365L
aL249694L
aL271784L
aL57314L
aL738088L
aL272786L
aL269771L
aL7140L
aL272822L
aL269857L
aL269770L
aL126082L
aL272909L
aL159670L
aL274652L
aL154034L
aL269883L
aL269877L
aL269933L
aL753790L
aL269908L
aL275361L
aL151552L
aL269882L
aL269884L
aL273241L
aL158452L
aL269902L
aL273831L
aL269568L
aL269932L
aL269929L
aL272908L
aL273235L
aL403269L
aL274571L
aL269927L
aL269930L
aL273883L
aL150214L
aL275152L
aL163742L
aL153989L
aL273920L
aL273712L
aL416173L
aL33271L
aL416352L
aL403353L
aL275198L
aL416167L
aL416361L
aL416683L
aL160898L
aL753744L
aL417116L
aL269802L
aL343479L
aL276108L
aL276020L
aL416685L
aL417227L
aL417029L
aL269891L
aL154783L
aL417229L
aL274803L
aL274125L
aL269984L
aL272832L
aL142203L
aL269523L
aL270083L
aL270038L
aL269866L
aL276660L
aL168193L
aL270072L
aL34793L
aL417113L
aL276333L
aL274747L
aL273209L
aL269868L
aL410580L
aL168021L
aL343452L
aL403294L
aL753793L
aL269722L
aL270130L
aL269806L
aL275771L
aL269705L
aL270081L
aL270086L
aL274468L
aL276096L
aL270089L
aL403321L
aL270123L
aL273076L
aL269685L
aL270106L
aL270114L
aL276290L
aL270120L
aL276555L
aL343478L
aL269690L
aL343498L
aL275560L
aL273106L
aL270061L
aL38801L
aL270146L
aL270116L
aL270132L
aL276601L
aL269709L
aL269691L
aL273183L
aL270117L
aL270177L
aL343372L
aL270111L
aL270110L
aL273550L
aL273405L
aL270108L
aL270174L
aL152160L
aL13010L
aL270149L
aL270176L
aL272851L
aL274154L
aL270119L
aL274528L
aL273347L
aL273553L
aL274044L
aL270156L
aL416357L
aL270152L
aL270096L
aL270131L
aL270129L
aL270170L
aL273774L
aL276008L
aL270127L
aL273691L
aL273560L
aL151431L
aL274179L
aL275259L
aL272985L
aL273280L
aL270157L
aL275228L
aL276371L
aL275953L
aL275534L
aL753743L
aL274677L
aL269795L
aL270107L
aL274943L
aL276324L
aL154558L
aL276011L
aL274287L
aL274142L
aL753733L
aL273969L
aL276463L
aL275998L
aL270118L
aL273067L
aL210763L
aL275898L
aL275141L
aL275441L
aL275305L
aL275194L
aL273799L
aL276632L
aL275946L
aL126044L
aL276586L
aL274330L
aL276636L
aL274321L
aL273678L
aL275907L
aL275763L
aL270268L
aL273173L
aL272727L
aL272948L
aL274518L
aL269573L
aL274817L
aL273296L
aL272906L
aL274950L
aL12810L
aL753737L
aL273246L
aL275978L
aL274011L
aL270112L
aL273132L
aL275980L
aL273369L
aL273049L
aL276262L
aL250615L
aL275064L
aL270135L
aL153387L
aL270172L
aL276362L
aL274702L
aL273876L
aL276127L
aL275114L
aL273746L
aL276084L
aL275960L
aL275231L
aL269402L
aL272836L
aL343475L
aL270312L
aL343422L
aL343426L
aL273519L
aL270141L
aL43373L
aL276672L
aL274906L
aL410624L
aL753711L
aL272894L
aL34741L
aL273228L
aL4347L
aL275472L
aL274856L
aL343423L
aL274845L
aL276412L
aL273270L
aL273484L
aL273362L
aL272776L
aL275099L
aL39842L
aL274519L
aL273438L
aL271047L
aL275363L
aL270978L
aL273907L
aL273215L
aL273581L
aL276493L
aL273357L
aL274268L
aL274082L
aL343869L
aL276314L
aL33139L
aL275117L
aL43784L
aL273138L
aL276295L
aL274617L
aL273908L
aL273723L
aL273959L
aL273505L
aL737890L
aL275308L
aL270824L
aL276610L
aL276588L
aL270315L
aL276557L
aL272956L
aL737958L
aL737976L
aL274083L
aL7857L
aL403426L
aL737949L
aL273548L
aL276513L
aL276433L
aL274989L
aL343871L
aL343476L
aL276568L
aL274433L
aL276674L
aL276517L
aL269512L
aL275048L
aL274148L
aL158273L
aL163753L
aL273029L
aL269796L
aL272812L
aL269822L
aL274437L
aL269827L
aL274007L
aL269763L
aL275926L
aL274696L
aL343866L
aL40508L
aL269936L
aL269836L
aL269871L
aL269812L
aL275356L
aL275239L
aL275570L
aL31145L
aL274937L
aL269878L
aL19997L
aL269921L
aL269773L
aL269905L
aL269897L
aL269814L
aL269813L
aL269912L
aL269756L
aL269766L
aL273744L
aL269792L
aL156432L
aL269888L
aL164061L
aL269818L
aL12581L
aL157467L
aL269797L
aL269433L
aL276058L
aL417117L
aL269994L
aL269896L
aL343862L
aL161940L
aL269785L
aL269928L
aL274381L
aL269823L
aL269780L
aL17863L
aL269880L
aL270011L
aL270003L
aL276515L
aL269953L
aL269949L
aL269849L
aL270054L
aL269986L
aL275240L
aL273662L
aL274679L
aL269993L
aL269982L
aL270021L
aL272871L
aL273998L
aL269973L
aL269979L
aL269995L
aL269825L
aL275121L
aL269981L
aL269987L
aL274391L
aL275889L
aL275887L
aL270039L
aL270077L
aL275956L
aL273001L
aL276523L
aL274830L
aL240233L
aL275565L
aL269791L
aL274905L
aL270082L
aL269997L
aL274511L
aL269768L
aL270059L
aL270161L
aL270028L
aL154775L
aL273589L
aL269940L
aL270034L
aL270004L
aL270075L
aL274250L
aL152115L
aL270032L
aL269990L
aL137603L
aL269965L
aL269985L
aL269969L
aL343864L
aL274851L
aL270064L
aL270154L
aL269817L
aL269958L
aL275535L
aL270065L
aL269924L
aL276372L
aL270173L
aL273758L
aL273705L
aL273987L
aL270087L
aL270051L
aL274669L
aL274530L
aL270069L
aL270164L
aL269983L
aL42871L
aL270105L
aL273290L
aL270153L
aL273877L
aL270140L
aL270076L
aL269881L
aL273882L
aL37575L
aL270188L
aL172255L
aL270100L
aL270204L
aL416358L
aL270102L
aL275901L
aL270185L
aL270226L
aL172651L
aL270213L
aL269992L
aL272964L
aL274456L
aL270258L
aL270212L
aL172101L
aL270264L
aL272798L
aL270223L
aL737981L
aL270208L
aL270248L
aL270263L
aL273577L
aL276598L
aL276230L
aL270197L
aL269803L
aL274556L
aL274013L
aL269999L
aL270145L
aL273590L
aL270186L
aL275538L
aL274503L
aL270201L
aL275351L
aL272800L
aL343601L
aL275437L
aL273373L
aL275483L
aL274751L
aL19609L
aL270298L
aL273406L
aL270306L
aL270265L
aL270304L
aL275140L
aL182048L
aL269971L
aL270303L
aL270300L
aL273337L
aL270163L
aL275384L
aL182960L
aL274646L
aL184266L
aL272989L
aL183254L
aL275402L
aL269511L
aL270238L
aL275427L
aL270308L
aL270299L
aL270301L
aL269963L
aL155173L
aL180574L
aL183256L
aL275406L
aL180349L
aL270305L
aL183052L
aL184182L
aL270297L
aL262666L
aL12870L
aL184853L
aL269720L
aL272900L
aL213390L
aL270191L
aL272848L
aL180188L
aL273643L
aL273727L
aL270309L
aL273288L
aL273196L
aL275226L
aL270325L
aL275112L
aL275100L
aL180250L
aL275051L
aL270318L
aL273992L
aL417112L
aL274959L
aL180599L
aL140849L
aL417103L
aL273317L
aL275652L
aL270307L
aL275309L
aL273776L
aL417105L
aL275779L
aL274078L
aL275346L
aL273938L
aL275948L
aL273625L
aL275735L
aL273978L
aL276007L
aL276002L
aL273004L
aL275752L
aL273510L
aL270327L
aL275755L
aL270423L
aL270448L
aL272853L
aL275821L
aL276100L
aL272781L
aL275569L
aL272809L
aL269697L
aL275393L
aL272849L
aL273656L
aL270139L
aL270390L
aL270374L
aL270469L
aL273079L
aL273464L
aL270227L
aL270523L
aL270526L
aL270494L
aL270485L
aL270406L
aL270446L
aL276071L
aL737922L
aL273561L
aL270463L
aL270508L
aL270544L
aL270527L
aL184194L
aL342726L
aL274743L
aL270475L
aL270534L
aL417110L
aL270512L
aL270391L
aL273366L
aL270525L
aL270528L
aL269964L
aL271053L
aL190806L
aL270445L
aL270085L
aL270493L
aL274094L
aL273942L
aL274658L
aL270530L
aL270545L
aL270502L
aL271057L
aL270552L
aL342712L
aL270547L
aL270447L
aL342734L
aL274188L
aL270509L
aL270101L
aL270537L
aL342727L
aL270443L
aL270550L
aL342707L
aL342729L
aL269819L
aL273838L
aL180286L
aL274310L
aL270529L
aL270484L
aL343868L
aL343875L
aL273333L
aL343870L
aL270476L
aL276089L
aL271009L
aL270531L
aL275050L
aL270549L
aL270991L
aL271023L
aL343874L
aL271040L
aL271024L
aL276628L
aL343499L
aL417106L
aL270171L
aL271022L
aL276675L
aL274385L
aL273216L
aL273075L
aL270990L
aL271042L
aL275391L
aL273334L
aL403330L
aL271026L
aL737947L
aL273761L
aL273654L
aL271000L
aL737977L
aL270999L
aL343227L
aL342700L
aL418141L
aL342709L
aL275332L
aL737880L
aL271056L
aL155586L
aL265788L
aL737968L
aL417107L
aL271041L
aL271025L
aL417109L
aL417108L
aL274958L
aL275574L
aL418146L
aL271058L
aL270486L
aL418142L
aL418127L
aL271001L
aL271007L
aL417475L
aL271015L
aL270372L
aL418102L
aL418100L
aL276415L
aL154795L
aL275949L
aL275020L
aL275951L
aL273491L
aL274413L
aL274113L
aL273944L
aL272837L
aL274546L
aL273697L
aL274090L
aL270546L
aL276277L
aL270178L
aL274522L
aL274265L
aL273858L
aL55788L
aL275947L
aL270103L
aL343872L
aL187387L
aL343865L
aL275407L
aL276502L
aL273884L
aL269764L
aL272954L
aL270405L
aL269938L
aL275833L
aL273910L
aL190421L
aL270175L
aL16927L
aL275730L
aL269774L
aL275101L
aL189019L
aL273782L
aL273647L
aL269831L
aL271048L
aL274672L
aL269840L
aL159773L
aL273574L
aL276653L
aL273738L
aL343504L
aL273755L
aL274901L
aL417237L
aL270133L
aL273465L
aL274913L
aL269775L
aL274619L
aL275052L
aL274464L
aL270040L
aL274500L
aL275321L
aL273364L
aL273664L
aL274157L
aL274686L
aL272774L
aL272953L
aL274848L
aL275707L
aL737952L
aL753797L
aL161629L
aL273483L
aL275941L
aL274544L
aL273322L
aL274752L
aL275315L
aL274541L
aL270122L
aL737873L
aL269860L
aL186060L
aL274620L
aL417102L
aL276021L
aL275449L
aL275326L
aL166670L
aL274073L
aL275609L
aL159820L
aL13814L
aL396209L
aL3736L
aL275354L
aL190205L
aL275503L
aL21970L
aL417111L
aL275787L
aL27225L
aL9545L
aL273177L
aL396668L
aL42662L
aL274133L
aL276649L
aL16206L
aL273086L
aL196583L
aL10329L
aL273535L
aL192889L
aL275819L
aL29812L
aL29804L
aL193974L
aL276525L
aL276279L
aL270027L
aL273533L
aL274691L
aL226807L
aL29210L
aL276491L
aL415888L
aL187050L
aL275540L
aL275920L
aL276339L
aL274707L
aL415889L
aL270764L
aL274624L
aL225896L
aL417230L
aL415886L
aL274791L
aL415904L
aL415903L
aL415869L
aL196213L
aL270465L
aL274346L
aL196556L
aL195069L
aL270155L
aL199080L
aL195405L
aL193555L
aL272931L
aL269870L
aL197042L
aL198296L
aL275485L
aL32924L
aL195087L
aL197303L
aL194257L
aL276148L
aL272870L
aL274713L
aL6687L
aL344045L
aL275185L
aL415887L
aL270068L
aL273781L
aL190286L
aL273206L
aL30360L
aL42217L
aL196592L
aL195355L
aL16521L
aL276135L
aL18995L
aL273745L
aL199023L
aL276594L
aL274753L
aL274510L
aL189015L
aL42714L
aL270183L
aL276661L
aL275868L
aL32508L
aL33500L
aL270244L
aL344046L
aL188264L
aL270221L
aL195067L
aL276250L
aL270970L
aL396174L
aL275782L
aL415905L
aL270986L
aL270267L
aL55451L
aL270398L
aL270338L
aL188265L
aL270340L
aL190233L
aL190601L
aL49669L
aL272904L
aL270346L
aL21156L
aL270415L
aL270413L
aL20428L
aL270366L
aL396659L
aL274590L
aL197294L
aL17876L
aL270396L
aL270414L
aL270386L
aL29748L
aL189279L
aL270393L
aL270400L
aL272986L
aL273637L
aL270378L
aL270454L
aL270345L
aL273493L
aL272830L
aL270434L
aL38290L
aL270296L
aL270352L
aL737914L
aL342705L
aL270358L
aL273081L
aL180229L
aL270499L
aL243976L
aL275000L
aL270412L
aL270369L
aL270353L
aL270302L
aL270395L
aL273085L
aL270453L
aL270848L
aL270433L
aL270408L
aL270479L
aL344044L
aL270437L
aL270498L
aL270442L
aL7787L
aL14528L
aL270474L
aL274030L
aL43998L
aL344043L
aL270466L
aL396169L
aL183019L
aL184371L
aL39124L
aL195125L
aL195119L
aL188598L
aL184670L
aL275600L
aL182418L
aL249489L
aL396662L
aL270409L
aL270513L
aL270198L
aL276611L
aL270427L
aL270451L
aL270444L
aL270357L
aL273189L
aL416209L
aL270431L
aL275657L
aL342704L
aL189694L
aL276059L
aL270436L
aL181293L
aL196532L
aL195317L
aL270364L
aL270368L
aL197231L
aL197599L
aL273626L
aL276068L
aL343502L
aL198184L
aL196350L
aL197995L
aL198048L
aL189838L
aL270881L
aL344047L
aL197623L
aL270816L
aL270917L
aL199001L
aL276619L
aL275343L
aL232334L
aL198627L
aL234314L
aL252875L
aL192820L
aL270804L
aL269956L
aL195267L
aL275150L
aL737794L
aL414277L
aL417484L
aL198432L
aL196623L
aL342720L
aL276303L
aL270383L
aL417487L
aL256447L
aL415063L
aL274207L
aL418073L
aL250164L
aL270462L
aL245433L
aL252009L
aL224273L
aL256913L
aL259014L
aL196620L
aL270438L
aL276406L
aL237256L
aL417984L
aL418082L
aL30225L
aL270370L
aL416427L
aL418003L
aL417986L
aL418070L
aL274096L
aL418067L
aL274962L
aL263993L
aL192099L
aL418079L
aL275822L
aL417483L
aL414640L
aL269913L
aL270522L
aL417481L
aL417974L
aL417979L
aL417993L
aL417963L
aL417967L
aL417969L
aL196338L
aL417976L
aL418087L
aL197044L
aL418015L
aL270519L
aL418004L
aL417994L
aL411456L
aL270262L
aL15772L
aL418092L
aL396678L
aL418075L
aL417972L
aL416484L
aL19510L
aL207099L
aL196591L
aL207245L
aL207477L
aL270516L
aL204961L
aL210094L
aL206971L
aL418078L
aL198308L
aL418072L
aL207340L
aL270002L
aL207452L
aL342716L
aL270196L
aL206987L
aL206562L
aL206428L
aL272525L
aL207425L
aL206571L
aL252043L
aL262954L
aL343863L
aL271105L
aL207031L
aL416266L
aL264828L
aL207639L
aL207740L
aL207689L
aL271060L
aL207061L
aL271146L
aL271068L
aL265420L
aL271096L
aL737957L
aL210276L
aL418076L
aL212148L
aL207108L
aL210139L
aL417991L
aL208850L
aL274327L
aL210000L
aL207354L
aL271128L
aL208228L
aL208828L
aL343873L
aL214954L
aL274295L
aL274697L
aL213185L
aL210148L
aL212919L
aL215587L
aL210059L
aL214069L
aL269845L
aL213494L
aL211218L
aL147615L
aL52205L
aL145939L
aL214048L
aL417486L
aL212283L
aL215855L
aL275520L
aL275993L
aL273888L
aL274231L
aL418074L
aL417488L
aL274769L
aL160895L
aL274729L
aL271069L
aL211824L
aL18912L
aL271070L
aL274461L
aL207230L
aL276065L
aL216693L
aL417995L
aL274955L
aL57189L
aL213903L
aL274578L
aL273887L
aL276569L
aL189158L
aL274758L
aL417978L
aL270622L
aL275418L
aL264511L
aL275042L
aL273889L
aL206780L
aL270928L
aL216392L
aL38922L
aL274555L
aL270846L
aL271110L
aL206988L
aL276311L
aL270951L
aL272982L
aL270950L
aL273820L
aL272994L
aL270835L
aL275187L
aL270825L
aL270855L
aL272869L
aL270891L
aL271071L
aL270969L
aL273747L
aL270957L
aL271119L
aL418097L
aL272816L
aL25219L
aL56114L
aL271078L
aL416813L
aL225760L
aL276627L
aL270964L
aL50348L
aL276231L
aL27182L
aL26061L
aL43174L
aL23420L
aL49975L
aL271121L
aL25294L
aL41622L
aL271183L
aL37309L
aL4083L
aL25477L
aL17556L
aL272771L
aL271085L
aL27515L
aL274195L
aL208709L
aL26352L
aL13356L
aL12514L
aL43310L
aL343867L
aL276579L
aL31792L
aL35830L
aL6263L
aL272773L
aL210745L
aL273402L
aL13831L
aL274084L
aL21885L
aL10957L
aL23850L
aL4257L
aL42798L
aL39971L
aL41984L
aL274481L
aL270853L
aL32192L
aL225359L
aL213302L
aL272902L
aL208967L
aL205554L
aL6158L
aL273785L
aL140440L
aL4819L
aL48885L
aL214976L
aL214416L
aL47039L
aL7536L
aL214645L
aL10007L
aL6498L
aL39254L
aL263765L
aL213911L
aL213495L
aL274929L
aL271061L
aL215833L
aL216249L
aL214232L
aL18799L
aL418101L
aL274757L
aL192796L
aL274645L
aL271180L
aL213529L
aL271162L
aL271228L
aL7663L
aL275808L
aL217363L
aL342683L
aL253785L
aL276644L
aL215211L
aL271189L
aL276060L
aL343217L
aL35521L
aL271219L
aL267258L
aL274285L
aL396787L
aL403226L
aL275463L
aL38178L
aL342681L
aL206383L
aL275245L
aL273423L
aL396701L
aL210532L
aL343226L
aL274648L
aL260641L
aL343509L
aL155607L
aL416463L
aL274388L
aL275360L
aL275970L
aL416448L
aL217222L
aL417238L
aL396242L
aL416164L
aL210543L
aL273583L
aL55123L
aL270953L
aL210044L
aL5837L
aL415919L
aL193195L
aL210296L
aL271171L
aL270908L
aL54599L
aL14808L
aL38781L
aL271094L
aL273766L
aL35961L
aL273069L
aL273913L
aL272785L
aL275325L
aL275103L
aL208647L
aL275276L
aL342682L
aL273225L
aL403202L
aL275173L
aL273936L
aL273860L
aL273034L
aL272854L
aL403203L
aL4748L
aL275877L
aL273703L
aL403199L
aL215971L
aL57348L
aL403136L
aL343211L
aL275247L
aL54331L
aL273474L
aL193292L
aL194430L
aL193476L
aL193861L
aL269937L
aL271173L
aL271206L
aL27406L
aL208472L
aL193043L
aL46876L
aL193708L
aL195511L
aL274492L
aL271156L
aL25472L
aL275453L
aL264505L
aL214146L
aL271175L
aL198154L
aL217262L
aL33148L
aL262593L
aL275317L
aL193182L
aL275751L
aL275065L
aL403206L
aL276383L
aL271218L
aL271194L
aL276426L
aL194503L
aL276596L
aL271198L
aL189999L
aL343626L
aL20527L
aL272753L
aL274834L
aL203932L
aL271172L
aL273683L
aL753800L
aL265468L
aL271220L
aL275164L
aL274451L
aL274801L
aL412691L
aL274010L
aL403508L
aL753836L
aL200495L
aL271201L
aL623394L
aL215792L
aL271223L
aL193526L
aL223246L
aL403167L
aL211303L
aL25160L
aL753818L
aL753809L
aL18071L
aL275604L
aL272494L
aL753805L
aL45032L
aL342698L
aL343631L
aL343632L
aL271166L
aL194408L
aL753802L
aL194318L
aL753824L
aL200476L
aL276176L
aL272748L
aL212594L
aL274159L
aL753816L
aL252840L
aL272721L
aL276112L
aL753716L
aL753799L
aL275001L
aL270844L
aL275656L
aL753811L
aL274636L
aL274888L
aL396650L
aL753831L
aL753822L
aL271003L
aL343220L
aL753807L
aL273999L
aL193406L
aL753813L
aL753840L
aL343634L
aL214217L
aL403223L
aL403125L
aL403219L
aL753830L
aL273038L
aL271227L
aL403228L
aL200574L
aL199607L
aL397469L
aL200052L
aL202946L
aL203392L
aL426284L
aL753838L
aL200456L
aL403222L
aL271217L
aL200442L
aL753821L
aL274338L
aL201373L
aL188975L
aL200246L
aL274927L
aL201557L
aL203265L
aL201559L
aL276248L
aL200508L
aL199885L
aL200781L
aL200500L
aL403204L
aL200632L
aL753814L
aL201948L
aL203487L
aL12390L
aL200850L
aL200661L
aL34745L
aL753815L
aL199942L
aL273903L
aL202970L
aL201011L
aL202693L
aL202657L
aL203599L
aL395919L
aL201193L
aL753803L
aL415822L
aL343628L
aL42733L
aL200713L
aL203181L
aL342679L
aL753719L
aL396675L
aL271161L
aL192689L
aL396203L
aL204284L
aL275518L
aL238895L
aL343636L
aL194699L
aL199345L
aL25276L
aL21292L
aL270861L
aL414564L
aL275002L
aL270886L
aL270952L
aL276128L
aL753798L
aL403218L
aL200100L
aL201414L
aL417489L
aL204189L
aL342695L
aL342680L
aL273281L
aL201003L
aL255171L
aL250325L
aL275929L
aL270381L
aL274990L
aL342696L
aL228105L
aL271207L
aL270384L
aL270904L
aL55987L
aL416783L
aL223139L
aL270870L
aL271072L
aL264792L
aL271019L
aL220157L
aL271152L
aL276322L
aL271059L
aL274604L
aL274114L
aL753714L
aL271077L
aL271002L
aL271093L
aL271074L
aL271136L
aL271079L
aL273950L
aL271089L
aL270972L
aL276623L
aL275436L
aL199681L
aL8349L
aL276373L
aL274651L
aL342687L
aL275754L
aL276356L
aL276345L
aL200165L
aL270410L
aL273965L
aL271127L
aL270988L
aL270993L
aL206211L
aL230664L
aL50753L
aL271036L
aL271018L
aL415971L
aL203134L
aL274928L
aL270888L
aL415955L
aL395439L
aL188520L
aL273240L
aL415936L
aL188830L
aL271021L
aL275445L
aL271030L
aL416726L
aL49994L
aL415970L
aL271129L
aL276572L
aL276254L
aL415973L
aL271104L
aL416204L
aL274908L
aL415986L
aL403110L
aL202750L
aL270985L
aL271090L
aL415956L
aL270489L
aL276242L
aL415972L
aL270945L
aL416421L
aL271029L
aL270980L
aL343207L
aL416756L
aL271182L
aL272970L
aL270976L
aL270317L
aL273511L
aL275359L
aL274483L
aL273555L
aL276659L
aL273973L
aL273521L
aL270464L
aL195167L
aL273348L
aL271103L
aL139694L
aL738018L
aL738021L
aL225182L
aL230477L
aL274983L
aL273770L
aL182408L
aL418077L
aL272925L
aL207384L
aL271149L
aL416217L
aL271109L
aL230221L
aL274053L
aL226381L
aL273899L
aL276294L
aL271106L
aL273955L
aL271101L
aL271108L
aL274623L
aL271140L
aL276056L
aL403524L
aL271150L
aL271098L
aL274035L
aL271005L
aL273248L
aL417212L
aL274605L
aL271116L
aL275080L
aL272724L
aL275992L
aL274008L
aL271065L
aL274653L
aL271111L
aL276642L
aL416023L
aL416003L
aL416408L
aL415988L
aL271054L
aL14878L
aL274059L
aL272942L
aL272965L
aL275109L
aL271133L
aL271131L
aL416387L
aL273033L
aL416021L
aL273551L
aL274212L
aL416040L
aL416054L
aL415885L
aL416055L
aL276264L
aL416037L
aL416655L
aL270497L
aL416039L
aL416497L
aL415899L
aL203581L
aL276346L
aL275494L
aL226065L
aL416053L
aL415867L
aL274289L
aL415908L
aL276647L
aL272917L
aL415881L
aL274194L
aL415910L
aL271045L
aL415961L
aL415929L
aL415895L
aL273358L
aL415960L
aL415883L
aL183169L
aL415892L
aL415897L
aL415896L
aL623385L
aL403521L
aL276063L
aL274269L
aL275460L
aL415949L
aL415967L
aL274712L
aL738060L
aL273187L
aL415933L
aL415965L
aL418013L
aL403525L
aL415914L
aL415969L
aL229214L
aL399418L
aL274526L
aL738034L
aL274827L
aL276222L
aL275412L
aL738031L
aL738032L
aL415928L
aL623393L
aL273417L
aL415985L
aL416026L
aL416022L
aL418005L
aL275899L
aL276416L
aL415976L
aL623388L
aL415987L
aL275327L
aL738037L
aL275981L
aL415994L
aL416044L
aL227190L
aL275200L
aL275509L
aL415983L
aL415981L
aL248397L
aL198622L
aL274732L
aL416049L
aL415979L
aL415974L
aL416035L
aL416047L
aL416048L
aL270657L
aL415997L
aL415931L
aL261088L
aL403113L
aL275552L
aL416030L
aL415917L
aL416019L
aL417231L
aL276480L
aL276261L
aL415990L
aL417233L
aL276000L
aL416063L
aL417194L
aL276584L
aL623387L
aL416029L
aL623392L
aL737813L
aL417232L
aL623384L
aL276352L
aL416824L
aL415918L
aL738064L
aL19189L
aL738061L
aL416042L
aL623383L
aL272783L
aL415898L
aL738070L
aL415902L
aL415877L
aL271135L
aL415992L
aL738030L
aL274621L
aL416062L
aL17799L
aL416294L
aL415884L
aL415951L
aL273995L
aL415907L
aL4982L
aL623390L
aL415909L
aL415968L
aL415934L
aL271076L
aL37250L
aL16311L
aL738036L
aL415980L
aL22445L
aL415925L
aL215820L
aL415959L
aL753808L
aL208285L
aL415868L
aL403520L
aL209173L
aL5568L
aL9632L
aL415977L
aL415966L
aL753819L
aL415984L
aL54374L
aL271178L
aL416010L
aL416008L
aL275493L
aL623389L
aL416001L
aL415916L
aL753826L
aL415991L
aL753817L
aL415964L
aL416050L
aL24770L
aL215825L
aL172374L
aL416025L
aL753810L
aL275800L
aL199281L
aL416392L
aL233495L
aL270389L
aL208052L
aL231200L
aL33683L
aL416057L
aL623349L
aL416382L
aL753835L
aL271144L
aL35921L
aL206554L
aL207722L
aL343876L
aL415975L
aL753833L
aL271235L
aL275382L
aL416391L
aL271245L
aL416390L
aL13621L
aL271252L
aL271251L
aL276384L
aL219666L
aL215948L
aL271243L
aL271238L
aL219763L
aL222732L
aL271236L
aL271242L
aL40683L
aL203458L
aL188781L
aL219917L
aL273653L
aL223851L
aL196721L
aL417193L
aL232117L
aL56840L
aL219911L
aL738033L
aL271192L
aL753828L
aL256252L
aL248244L
aL234770L
aL270099L
aL235693L
aL220861L
aL271244L
aL271289L
aL253799L
aL238833L
aL276377L
aL271437L
aL271412L
aL271371L
aL271421L
aL196875L
aL271503L
aL276537L
aL271241L
aL271512L
aL271301L
aL231606L
aL271574L
aL271648L
aL271653L
aL271576L
aL271533L
aL271298L
aL271308L
aL271553L
aL271591L
aL200981L
aL271302L
aL271281L
aL271365L
aL416027L
aL753832L
aL753820L
aL274772L
aL416000L
aL271340L
aL271088L
aL403225L
aL271296L
aL271568L
aL274406L
aL274488L
aL271661L
aL274279L
aL272010L
aL271400L
aL271402L
aL275649L
aL203130L
aL271495L
aL270035L
aL271607L
aL271063L
aL271612L
aL196156L
aL274934L
aL271664L
aL273591L
aL275202L
aL271608L
aL271551L
aL274900L
aL416938L
aL403112L
aL271506L
aL270811L
aL275553L
aL753841L
aL273569L
aL416917L
aL416914L
aL276006L
aL738091L
aL271043L
aL273011L
aL416948L
aL272991L
aL271644L
aL342688L
aL271286L
aL273018L
aL271444L
aL271473L
aL271636L
aL271339L
aL271619L
aL271462L
aL271020L
aL275492L
aL271364L
aL271511L
aL271632L
aL273184L
aL273318L
aL270426L
aL271451L
aL273593L
aL416386L
aL274730L
aL276321L
aL236610L
aL273343L
aL420247L
aL276521L
aL274835L
aL274680L
aL273180L
aL271500L
aL273118L
aL271572L
aL275456L
aL273698L
aL271606L
aL271601L
aL273632L
aL273724L
aL422813L
aL274140L
aL422815L
aL271613L
aL271615L
aL422814L
aL420209L
aL271446L
aL422867L
aL422799L
aL422847L
aL422798L
aL241073L
aL273566L
aL422832L
aL422882L
aL738019L
aL266320L
aL422900L
aL271652L
aL271086L
aL274837L
aL271583L
aL422749L
aL416915L
aL271597L
aL403533L
aL343206L
aL271426L
aL274773L
aL274946L
aL274239L
aL226842L
aL738020L
aL271457L
aL273026L
aL271311L
aL274718L
aL275055L
aL271588L
aL271442L
aL271361L
aL422848L
aL271474L
aL271651L
aL271126L
aL274971L
aL274417L
aL272701L
aL273983L
aL271424L
aL273685L
aL274474L
aL240570L
aL275071L
aL274303L
aL273002L
aL271494L
aL273488L
aL273875L
aL271669L
aL272738L
aL109820L
aL276658L
aL271327L
aL273200L
aL271410L
aL416020L
aL275912L
aL422864L
aL403549L
aL276166L
aL275246L
aL276648L
aL272716L
aL272215L
aL275005L
aL415911L
aL275208L
aL273811L
aL246679L
aL271427L
aL241188L
aL422831L
aL247231L
aL245104L
aL271087L
aL208110L
aL416869L
aL213615L
aL273496L
aL247145L
aL738035L
aL244707L
aL271672L
aL418157L
aL274685L
aL274276L
aL276532L
aL415874L
aL415963L
aL275924L
aL403210L
aL273989L
aL275803L
aL273305L
aL273353L
aL273036L
aL274429L
aL275345L
aL273537L
aL273199L
aL271526L
aL240748L
aL421056L
aL274219L
aL275893L
aL275241L
aL422776L
aL416380L
aL275501L
aL422785L
aL228163L
aL275588L
aL275252L
aL274832L
aL422826L
aL275096L
aL270912L
aL275312L
aL274859L
aL274045L
aL275379L
aL416322L
aL271345L
aL416923L
aL422771L
aL275969L
aL13975L
aL422819L
aL271477L
aL26249L
aL274739L
aL396857L
aL274725L
aL412851L
aL274060L
aL623351L
aL241154L
aL738067L
aL623367L
aL37106L
aL274009L
aL275444L
aL276570L
aL208003L
aL275514L
aL274861L
aL275375L
aL415932L
aL416941L
aL275400L
aL415900L
aL416058L
aL422762L
aL273832L
aL418207L
aL10768L
aL415937L
aL274397L
aL275575L
aL623353L
aL271395L
aL273457L
aL271665L
aL274497L
aL273655L
aL275714L
aL273855L
aL276228L
aL273354L
aL276082L
aL415565L
aL273147L
aL49764L
aL274608L
aL274452L
aL242449L
aL623386L
aL273045L
aL275950L
aL273924L
aL418156L
aL272977L
aL38234L
aL274465L
aL275102L
aL271203L
aL275497L
aL276374L
aL422862L
aL273150L
aL276156L
aL416853L
aL273325L
aL273043L
aL416926L
aL276575L
aL275729L
aL420215L
aL422901L
aL276358L
aL222357L
aL275844L
aL274792L
aL422894L
aL422788L
aL276229L
aL46017L
aL271240L
aL271391L
aL422896L
aL275891L
aL422889L
aL276031L
aL275710L
aL422823L
aL422838L
aL276179L
aL422890L
aL274599L
aL416969L
aL422874L
aL623347L
aL416325L
aL256999L
aL271857L
aL343994L
aL344005L
aL422803L
aL271839L
aL422910L
aL344019L
aL276413L
aL276233L
aL250206L
aL344030L
aL271932L
aL271964L
aL623352L
aL271923L
aL271814L
aL271459L
aL272492L
aL271393L
aL271540L
aL344003L
aL272005L
aL271921L
aL271957L
aL275851L
aL344012L
aL275134L
aL422802L
aL344028L
aL272022L
aL275249L
aL250889L
aL271064L
aL251100L
aL44298L
aL275398L
aL6460L
aL422906L
aL274993L
aL344021L
aL274924L
aL276328L
aL276045L
aL422828L
aL274865L
aL343993L
aL250780L
aL422822L
aL276276L
aL247782L
aL416323L
aL271906L
aL271856L
aL274120L
aL422820L
aL251709L
aL275799L
aL344002L
aL275740L
aL273136L
aL416616L
aL271915L
aL276126L
aL274068L
aL343995L
aL194379L
aL276094L
aL422759L
aL344004L
aL250382L
aL422818L
aL250146L
aL250478L
aL344013L
aL275666L
aL274241L
aL422843L
aL272173L
aL422829L
aL422907L
aL422860L
aL422784L
aL276472L
aL271990L
aL422836L
aL396151L
aL274046L
aL273660L
aL271842L
aL422908L
aL403175L
aL276341L
aL271902L
aL272023L
aL275278L
aL275432L
aL272055L
aL275106L
aL251060L
aL271850L
aL273460L
aL276113L
aL422869L
aL416851L
aL273638L
aL272139L
aL251627L
aL271801L
aL272073L
aL272155L
aL271818L
aL251763L
aL272116L
aL272064L
aL271956L
aL737847L
aL272105L
aL275095L
aL252336L
aL274509L
aL272039L
aL272146L
aL272157L
aL276227L
aL422878L
aL276118L
aL271884L
aL344020L
aL274766L
aL422825L
aL395437L
aL242091L
aL272046L
aL271869L
aL343996L
aL241195L
aL274894L
aL273010L
aL343629L
aL252248L
aL271695L
aL245282L
aL344027L
aL271994L
aL251170L
aL344029L
aL343627L
aL276434L
aL271432L
aL275328L
aL250383L
aL415875L
aL275081L
aL344034L
aL250017L
aL344015L
aL343999L
aL272189L
aL344033L
aL344009L
aL251704L
aL422852L
aL251187L
aL344014L
aL344006L
aL272744L
aL271899L
aL271855L
aL271234L
aL344036L
aL271819L
aL344001L
aL415906L
aL251971L
aL274547L
aL275440L
aL271977L
aL56654L
aL271616L
aL272018L
aL344035L
aL272016L
aL272026L
aL344023L
aL344016L
aL344031L
aL272132L
aL344032L
aL343998L
aL422859L
aL271924L
aL271904L
aL272096L
aL422863L
aL271722L
aL422795L
aL243810L
aL271940L
aL276171L
aL422895L
aL272099L
aL272014L
aL272004L
aL275038L
aL422768L
aL272121L
aL344010L
aL16804L
aL199474L
aL273610L
aL275082L
aL250692L
aL251109L
aL272130L
aL272044L
aL248445L
aL272232L
aL272230L
aL272060L
aL272075L
aL272043L
aL272194L
aL274703L
aL271942L
aL272248L
aL272159L
aL272241L
aL275167L
aL204406L
aL271901L
aL272193L
aL272093L
aL416858L
aL271455L
aL272111L
aL272243L
aL272293L
aL272045L
aL272160L
aL272273L
aL272049L
aL272260L
aL272279L
aL271961L
aL274880L
aL271831L
aL272124L
aL272079L
aL245281L
aL272081L
aL272133L
aL273152L
aL272090L
aL271788L
aL276301L
aL276479L
aL273084L
aL274806L
aL275702L
aL243075L
aL274264L
aL273891L
aL242534L
aL271678L
aL271765L
aL241316L
aL271701L
aL241318L
aL271793L
aL272076L
aL274740L
aL274002L
aL271758L
aL272813L
aL422885L
aL273331L
aL271792L
aL344037L
aL272106L
aL274136L
aL242681L
aL276173L
aL271742L
aL344038L
aL271684L
aL271682L
aL272223L
aL252923L
aL272796L
aL272001L
aL271791L
aL241444L
aL43845L
aL271913L
aL252382L
aL275864L
aL273981L
aL251438L
aL272031L
aL276029L
aL275017L
aL276607L
aL276524L
aL248613L
aL273657L
aL271849L
aL272227L
aL272161L
aL252339L
aL276565L
aL274897L
aL344025L
aL272192L
aL270854L
aL272239L
aL273579L
aL273885L
aL275075L
aL273620L
aL273778L
aL272195L
aL29365L
aL271905L
aL272261L
aL273007L
aL274726L
aL246270L
aL273174L
aL416849L
aL272895L
aL273932L
aL273492L
aL272188L
aL272263L
aL272190L
aL276580L
aL272238L
aL272306L
aL272290L
aL272213L
aL274689L
aL272256L
aL272036L
aL272035L
aL272151L
aL272186L
aL272244L
aL272069L
aL272078L
aL272234L
aL269861L
aL272087L
aL272034L
aL272068L
aL272117L
aL272203L
aL416852L
aL272280L
aL272110L
aL272253L
aL272270L
aL272271L
aL272268L
aL272169L
aL272254L
aL343535L
aL343546L
aL245297L
aL272187L
aL343533L
aL272247L
aL343553L
aL244155L
aL250603L
aL272987L
aL272154L
aL272302L
aL343592L
aL343532L
aL272312L
aL343530L
aL272199L
aL274904L
aL276080L
aL343581L
aL272174L
aL275066L
aL271774L
aL737811L
aL272297L
aL416850L
aL271570L
aL343525L
aL343524L
aL343554L
aL272135L
aL271750L
aL343537L
aL272287L
aL343548L
aL343575L
aL273332L
aL343579L
aL343557L
aL276216L
aL273686L
aL343526L
aL272233L
aL396705L
aL343527L
aL343528L
aL343577L
aL343568L
aL242690L
aL343596L
aL271158L
aL271092L
aL343600L
aL343507L
aL272235L
aL251240L
aL343593L
aL272142L
aL276153L
aL272281L
aL274716L
aL276010L
aL273443L
aL273873L
aL275204L
aL343584L
aL271985L
aL250801L
aL343588L
aL273328L
aL276220L
aL344008L
aL274704L
aL417478L
aL246149L
aL344041L
aL271809L
aL195088L
aL275424L
aL271936L
aL272156L
aL250529L
aL272932L
aL251785L
aL275433L
aL274147L
aL251437L
aL275271L
aL272104L
aL272226L
aL343997L
aL415922L
aL245294L
aL273444L
aL344026L
aL244793L
aL344042L
aL343595L
aL273445L
aL274266L
aL241969L
aL396874L
aL245508L
aL271947L
aL275466L
aL241514L
aL274760L
aL241501L
aL273098L
aL272740L
aL273892L
aL247700L
aL276009L
aL274776L
aL276389L
aL276466L
aL272920L
aL275148L
aL272919L
aL272218L
aL273256L
aL273993L
aL275646L
aL275647L
aL273972L
aL242515L
aL271832L
aL275911L
aL343576L
aL403131L
aL246678L
aL22882L
aL272015L
aL272876L
aL251975L
aL246460L
aL275054L
aL273239L
aL30136L
aL274097L
aL251473L
aL273588L
aL272208L
aL271935L
aL272286L
aL245278L
aL272291L
aL243919L
aL271824L
aL259156L
aL738025L
aL403523L
aL252312L
aL343556L
aL275417L
aL738029L
aL273065L
aL50336L
aL271948L
aL11617L
aL272179L
aL738028L
aL273735L
aL275675L
aL738022L
aL271875L
aL271949L
aL271829L
aL271912L
aL271939L
aL273730L
aL271876L
aL271840L
aL271889L
aL271885L
aL271887L
aL271967L
aL415995L
aL274309L
aL273721L
aL250928L
aL271955L
aL272003L
aL271821L
aL271844L
aL272017L
aL273689L
aL623391L
aL271861L
aL271959L
aL272061L
aL271868L
aL271969L
aL271836L
aL422909L
aL274613L
aL276353L
aL271826L
aL274674L
aL125855L
aL415893L
aL271958L
aL422888L
aL275115L
aL276134L
aL275753L
aL344022L
aL247895L
aL344040L
aL271807L
aL273731L
aL273587L
aL271937L
aL271989L
aL271858L
aL396875L
aL343590L
aL208971L
aL251076L
aL247937L
aL415866L
aL276334L
aL422805L
aL344024L
aL271813L
aL416009L
aL250050L
aL271729L
aL271239L
aL271134L
aL403221L
aL272024L
aL271715L
aL271822L
aL251792L
aL193587L
aL271083L
aL273718L
aL271895L
aL240770L
aL275448L
aL738024L
aL272138L
aL271828L
aL271667L
aL422777L
aL271841L
aL251186L
aL271968L
aL274441L
aL271440L
aL738023L
aL418158L
aL12207L
aL271805L
aL251064L
aL211036L
aL415999L
aL273754L
aL271976L
aL271810L
aL272883L
aL271808L
aL204766L
aL272101L
aL251955L
aL343597L
aL242058L
aL271950L
aL344000L
aL271954L
aL250788L
aL273824L
aL274479L
aL275053L
aL272059L
aL422791L
aL250878L
aL243780L
aL252056L
aL242442L
a.(lp0
F57.36295268100271
aF64.36804610581927
aF28.99483575484274
aF93.68404201089452
aF43.605422716217575
aF87.2956960442362
aF40.02810553501797
aF95.60101294446646
aF43.922126659670575
aF81.48445328115247
aF66.1230356455113
aF89.58220539522465
aF37.63983419903365
aF67.54488021175982
aF89.50995256908455
aF66.77211638358264
aF95.52498352314642
aF25.649158373186264
aF21.037317787517733
aF58.321883016926506
aF21.103529714583754
aF20.376909052596858
aF92.38506897195762
aF17.22978047783387
aF22.446490644849153
aF61.48439767914565
aF58.50842820682427
aF87.44794047640747
aF55.879000584612854
aF92.87155952000128
aF19.609343191980454
aF23.79569814889597
aF48.35559202281732
aF23.11628593334294
aF70.22779626980994
aF93.53733761217893
aF20.04271630225427
aF88.9527715312468
aF87.69770817160024
aF118.439877605152
aF65.40764937912152
aF93.50134691455537
aF82.08821281401927
aF94.03898810886082
aF96.78993370615903
aF32.1273263244291
aF61.71165675394629
aF99.97762646332092
aF81.22695236332527
aF91.84011404800866
aF84.80713089298307
aF70.80057081950719
aF85.98803354150668
aF88.10889564040943
aF33.40094064132951
aF82.64435163455322
aF89.61794576145795
aF20.483819620553078
aF82.24545222676616
aF20.74612607168255
aF64.35497282833705
aF88.18075318050099
aF22.428561069393567
aF64.49435617311374
aF34.55843056615336
aF53.23342093120432
aF30.72853337059868
aF40.9080694604033
aF79.44121741279798
aF35.04574388356701
aF62.7429657146957
aF70.866114825595
aF26.29370561404112
aF92.49998403940766
aF98.29639999469222
aF56.90183839344982
aF67.24519609322948
aF29.196066911261113
aF86.02342917711773
aF22.766608669691323
aF33.3101989912689
aF38.91919408423534
aF66.38936495241481
aF73.19587902379004
aF54.566477453848194
aF51.226575046368225
aF87.4260916429943
aF20.860183090823405
aF40.11174681734815
aF86.40214311325835
aF58.22555188027647
aF43.128524086778356
aF36.04831617127233
aF77.68423563081326
aF86.96652773509237
aF92.95141881959243
aF89.18479054152678
aF26.983789596645245
aF94.90700377797152
aF95.46801194895036
aF55.81709063819758
aF40.47156811877358
aF43.54221133356199
aF52.52276585892885
aF38.54808118446137
aF86.20248162869063
aF49.68302001015813
aF27.116050861975474
aF32.96929670955897
aF90.9354599948851
aF42.08824494303062
aF43.46012858109633
aF24.922409280211223
aF86.78727114210986
aF42.02306128897747
aF36.27617240109054
aF54.17040770349934
aF33.657481057241476
aF36.49126317694732
aF91.16714872005605
aF26.01593706715834
aF31.153498765943198
aF94.42258717513386
aF94.15492720959884
aF32.18300790269376
aF24.822823319307616
aF37.95274403818974
aF26.106075982534456
aF88.6313055808147
aF89.82997797256299
aF61.73058245096435
aF72.26809332295304
aF79.23271541867368
aF98.8770460823927
aF109.74633642825331
aF70.37897586284683
aF107.50277428495629
aF97.08334771138082
aF89.65908396386706
aF65.62790422880445
aF36.09943807351201
aF47.901689777363
aF38.09770407428729
aF39.883734576070964
aF34.554341464358444
aF43.30360820622538
aF37.37731769005835
aF38.11754145883772
aF31.852713728967593
aF35.782280052137835
aF47.083810255853265
aF86.47559338212028
aF71.46260103646824
aF49.228490154879665
aF41.58884605784338
aF55.59767432026086
aF81.96068792234344
aF65.27077374811756
aF32.0585742736179
aF74.11717943146346
aF36.9367825532175
aF62.58150981380606
aF78.3866052088056
aF69.78651050679895
aF50.933670255954965
aF71.75283153769182
aF77.83268408850384
aF41.16406855853727
aF82.86278166135494
aF87.60896158688578
aF71.25472144296369
aF65.91049854420785
aF101.48735190235016
aF86.11944236235396
aF74.64502004507165
aF85.08482500481485
aF69.45309699031785
aF81.82322864677744
aF59.915608779563904
aF52.94184594973779
aF78.26134775212111
aF73.9922029832536
aF73.42592077240977
aF39.654896998216415
aF45.75279332208001
aF80.14041016052047
aF47.57127245020033
aF41.95913628288069
aF40.49690452916259
aF111.71936892173608
aF48.16858060669014
aF32.99029109984177
aF91.61698601531323
aF38.57512976474553
aF34.96176947819796
aF53.44083172997778
aF78.42904407420536
aF48.98450200065851
aF64.43570102190056
aF65.57523667623428
aF77.47743294143352
aF78.21493803372546
aF36.10225233209104
aF77.06932373153865
aF54.39504529137678
aF84.24782545051119
aF57.95166578783314
aF49.48161423071818
aF53.07249726382052
aF79.0538738256495
aF79.83595098510959
aF33.73741021670501
aF33.83603610386921
aF65.85482571214939
aF81.1873293693152
aF57.16073418036953
aF71.12538315574369
aF50.497524924390234
aF78.40698170430369
aF51.22468245038873
aF70.5640064628712
aF76.91032713943409
aF88.71763659347347
aF49.381892748828236
aF91.72453512464234
aF69.64300190980168
aF53.072457011396104
aF78.76951745271438
aF26.00484321408434
aF94.92703326450224
aF78.32266607487767
aF51.042192700197745
aF71.21438673624075
aF86.5456085051156
aF77.81098683107204
aF62.03126123245885
aF25.312918911099434
aF63.90370065643426
aF81.60701467825852
aF54.920048220138895
aF47.939181656013076
aF73.85786672213376
aF66.52250707397275
aF70.78163771712158
aF47.09629451008762
aF85.86202462430688
aF77.71234540051745
aF75.48141131664653
aF79.49371518520604
aF74.58829362968135
aF63.40982244638877
aF39.98957584980907
aF75.04578434445271
aF80.55093999503646
aF29.396348745575718
aF78.92452862249567
aF97.3839507592979
aF86.07064618469667
aF65.25750144980361
aF51.2338317546952
aF98.29936192839419
aF96.83112794515645
aF96.27032086372782
aF85.78707585237194
aF81.68364325174362
aF31.932892234907126
aF77.04946462232216
aF61.68388443470547
aF97.62624685718042
aF64.11365003246121
aF52.377239724536516
aF66.08345992315253
aF80.63302464630738
aF48.96004596321565
aF89.29974457258147
aF64.78952499113791
aF46.694761828567266
aF63.966051077098754
aF90.57382115396146
aF74.54288283975919
aF52.54296936460125
aF72.09921460198638
aF77.27540759581451
aF82.23708360667932
aF48.59839365514745
aF45.72454992658727
aF98.51225726564425
aF52.43542870493964
aF55.29087794435881
aF46.135763360264576
aF71.07364882068592
aF31.394330170648495
aF21.174951109810237
aF36.411943267275326
aF84.62992347802854
aF70.19633406759601
aF89.7966595188132
aF60.911468434788276
aF97.12819738156533
aF96.5808508162608
aF69.60838851521612
aF51.558089453506405
aF84.22754437160728
aF85.49981991119604
aF67.66160158505613
aF22.155347508918435
aF88.28005899905698
aF93.44731881877635
aF86.6382991805622
aF84.25854557413051
aF92.8021588183429
aF74.00073059997868
aF84.970043731074
aF73.50337187103608
aF82.60543560071297
aF49.69750752729221
aF36.6348645546215
aF63.167534720489336
aF68.0096361252397
aF41.67161036011752
aF54.00620415652095
aF61.455591488290146
aF79.64019851116626
aF81.31525356082204
aF94.08690299640415
aF53.18405305910865
aF85.01094941830424
aF89.8488230243136
aF61.556166321101955
aF48.31209121039039
aF46.39443999806352
aF23.811033546065683
aF97.88222187963052
aF69.298147468492
aF77.79765277834332
aF81.7518236749006
aF53.41614140586391
aF52.39698323572036
aF48.476216757094534
aF93.05210918114143
aF85.98623695093568
aF79.84352410174739
aF96.20750403463923
aF85.25785445140284
aF67.15919201384938
aF48.462900372505246
aF97.23843437227497
aF61.964638237455134
aF47.38627541121543
aF92.0618213032903
aF72.99674952476312
aF78.18692762413329
aF53.687770005572055
aF97.40356985517931
aF90.59160774143795
aF29.59397157681517
aF85.98253717846552
aF77.6201495995771
aF48.182701508207714
aF27.56148432445489
aF93.05210918114143
aF77.36715006673452
aF57.44370921790277
aF68.73775470870265
aF24.14311332240985
aF66.6011588770933
aF31.241736004044995
aF82.63827527693519
aF81.31276900835107
aF76.35147071052143
aF65.38806329758951
aF76.09968108825106
aF67.3209393434706
aF27.825200414306853
aF95.48819124423963
aF75.83786295591926
aF73.44312794801601
aF78.30914455050066
aF88.98870251644917
aF71.08361381824446
aF99.19947622940363
aF67.71295145992593
aF76.54499935133246
aF54.0302804864842
aF84.06917692890407
aF65.98132995593154
aF91.32898052585344
aF89.99180086479227
aF73.81833104144101
aF84.59296751635462
aF90.3221549165572
aF92.4824297457916
aF40.509191802750976
aF49.65740727145575
aF83.14038586334603
aF83.18836734387641
aF81.69690376926886
aF82.02034532716186
aF89.59796759895025
aF81.64405329016336
aF98.33905582222135
aF21.21369042802816
aF64.69788678861562
aF66.66308674085857
aF59.80165553908533
aF93.05210918114143
aF96.98973753432419
aF76.49565437605608
aF20.92179245056909
aF64.54619907345159
aF27.91989940103419
aF86.46389299187383
aF87.15007879757832
aF90.86141229766422
aF93.05210918114143
aF48.48121587303334
aF57.64958870255392
aF82.7824966036399
aF89.79180649940291
aF82.37360088395799
aF65.01660833852777
aF82.39653064101327
aF80.7865385131486
aF78.89509331883275
aF53.51366234186931
aF87.94472673763595
aF80.84235656816303
aF100.339598439589
aF52.227510185781384
aF34.972219985297585
aF85.51791054272444
aF63.995167402770896
aF75.58422536214556
aF100.99184075464912
aF95.07973803334662
aF58.577812926873925
aF34.07382857891033
aF84.79926162302004
aF66.12374405076679
aF79.60274073319857
aF52.03969302409818
aF78.76767737900704
aF80.95951512192035
aF58.33565216254284
aF62.13438436461198
aF109.70624579531233
aF52.53499981565089
aF84.70136763209979
aF83.74979993184073
aF71.48189824615784
aF81.9385675528629
aF17.99799057304185
aF60.03723130704829
aF49.24305443423499
aF65.66007852315784
aF61.5672783521431
aF97.70369767725664
aF82.12172395968346
aF85.98208008802959
aF78.05317917969128
aF68.28502820438305
aF114.79725663029552
aF60.632317699465844
aF65.90707585227935
aF73.30222264135375
aF109.84370013875984
aF89.39035074853426
aF68.76164735091889
aF52.741581995387726
aF74.98201149719486
aF44.83304555590675
aF93.72076043775755
aF15.871424749996752
aF71.18739991932429
aF35.32777265443191
aF97.62402809991305
aF60.72653750073106
aF49.3862401572522
aF65.36225305612643
aF60.88041717325556
aF47.06606673289038
aF28.75721085013255
aF90.98809005031205
aF76.54144568815067
aF49.299006965837805
aF38.675719745926216
aF84.29099171940783
aF84.75957628709052
aF54.45742783615948
aF61.69023351854335
aF87.45214926180124
aF63.22326276773571
aF65.36322983074588
aF78.00344091557233
aF30.78128227768407
aF91.68082852146075
aF80.18475820864941
aF88.45535159283115
aF44.57430258726155
aF93.05210918114143
aF77.62220754156237
aF26.092127306831774
aF82.59327426246284
aF38.856764123192924
aF74.98149065658487
aF94.94648051509952
aF49.14009146528365
aF125.44064349146046
aF44.32926613383723
aF45.68142569253595
aF64.29526795720288
aF81.17453592024533
aF58.22220139521138
aF66.10588260337417
aF41.85471210816833
aF82.09622769952364
aF87.17298001382433
aF40.20045079692066
aF76.40646066489026
aF74.04447157482296
aF43.88018225879007
aF92.16287728907515
aF35.70993132107464
aF38.07891198172903
aF38.043033790561736
aF57.56941605477015
aF72.4226323203376
aF68.94870027684499
aF40.21103383035859
aF46.26145822684424
aF49.91790656715692
aF60.63120770143082
aF71.53322476014577
aF97.38261162405938
aF30.97475058881649
aF82.18341296467153
aF49.92475375510475
aF23.7820612522762
aF60.413395292028326
aF26.69824798857057
aF35.35909246870499
aF69.44873926484865
aF81.57101471063459
aF81.64188263116877
aF33.163922236246044
aF66.10850115428758
aF66.62084886344326
aF86.91891204657648
aF25.120076878977866
aF31.131862740473064
aF98.39326522185142
aF84.97901414323702
aF87.64885557181319
aF32.09623151681431
aF21.99750691127248
aF85.70470696227025
aF29.016849320953984
aF95.70006787013462
aF86.70099839684538
aF98.29573783939352
aF35.416799744490575
aF97.32391513029513
aF30.959246199648508
aF43.395242309633645
aF101.8506889242514
aF89.4083886340926
aF23.627532368850474
aF85.51638080101078
aF56.26790840598931
aF85.32460992127334
aF26.22692671385532
aF42.52863697123871
aF88.91746919661486
aF95.52874187513534
aF21.124715781282294
aF30.054312354107665
aF23.80464570124666
aF71.6885378889101
aF21.417447335827042
aF61.39707217315826
aF66.6637086904563
aF20.051670087512377
aF33.72127702918953
aF24.25209560625857
aF40.78617331830688
aF24.965085517098004
aF30.054365012216266
aF23.751928399801205
aF24.658871342197106
aF49.80683237968256
aF37.5515245754969
aF35.365307730899126
aF35.00908191136676
aF28.73772661973001
aF51.91120791083867
aF44.33594889535094
aF43.747844599971344
aF24.618477004144626
aF44.62047486126062
aF70.89331042611099
aF41.29413655409037
aF95.13658432268466
aF23.498299551133822
aF33.52063561789103
aF22.194850386138974
aF31.273534959380562
aF40.9351760165714
aF66.56551464449831
aF40.16739240531024
aF92.43897512839749
aF21.633136012435813
aF69.98634436957508
aF26.80823074907501
aF29.37632831535685
aF79.74915471077401
aF22.91580298335289
aF21.94513005589446
aF27.31616599014694
aF31.792339684000694
aF97.59616105465273
aF27.831095650289484
aF31.278968692856058
aF29.180871826991275
aF27.11434131970175
aF35.58488942574192
aF39.61578419502683
aF37.60695982915162
aF87.41431526606544
aF23.86651441452507
aF71.4835164835165
aF84.39056594004039
aF56.93294169998922
aF36.69785397117294
aF45.04002856552758
aF98.22991791880342
aF124.93646599714056
aF34.90398549037568
aF54.151606778182305
aF29.249400757994025
aF51.463689087629206
aF51.41067631211971
aF34.41264112662633
aF30.999403314093907
aF34.14410702514588
aF53.39433871514305
aF94.9993128227279
aF21.548338589494758
aF53.01296553029225
aF86.33641296148905
aF37.76992278625599
aF63.7814839758878
aF28.971274588684224
aF102.2471644849861
aF57.82299968339335
aF24.731958581098446
aF123.29126673993198
aF26.462247429989365
aF81.29483231356232
aF32.33487078360481
aF25.581896197868055
aF75.7489920758521
aF22.09800565239611
aF71.18767255102985
aF98.5450638071606
aF97.65792818359449
aF24.0882399903723
aF65.87248226720854
aF43.15441624325856
aF35.35605362010417
aF40.90956528497122
aF35.129704116730224
aF26.863173190098294
aF34.900799143126704
aF30.231122816808295
aF43.979525503979204
aF72.26765728682051
aF66.81824743991369
aF43.82077828760878
aF26.501298695952975
aF33.558353216537306
aF24.516785898879615
aF39.551419686645964
aF74.76568954999954
aF28.255607870199842
aF91.21204432216246
aF26.84889274814153
aF98.29206334212711
aF28.116059011526133
aF34.29916901349395
aF21.490844871357158
aF59.450668536368404
aF25.0757620269275
aF48.9802257531651
aF28.976819799642286
aF70.76236222157121
aF30.144824992181952
aF37.259894976235266
aF44.75407675176976
aF80.59827129087091
aF30.50973076007918
aF73.79704988755532
aF63.91658900795329
aF78.7959465368547
aF48.24119730560648
aF27.28383559745698
aF91.14696435979991
aF98.31107052362712
aF33.88803430510046
aF84.82279820840242
aF45.124517794203356
aF68.73493983850521
aF26.87150518576117
aF64.86571838508152
aF49.663978918879835
aF48.389168519458394
aF49.938219065854796
aF51.79622097357399
aF38.01695283669705
aF71.53882969019446
aF33.0967320156326
aF25.84813166341267
aF35.210069775826604
aF24.769350558779447
aF46.21940688314457
aF29.652773543467436
aF61.63982442878187
aF64.79792188849888
aF52.65509446493229
aF110.14799030332956
aF63.88552829870608
aF29.40376780412069
aF62.016120293705534
aF87.39371908742866
aF87.6189314794322
aF62.08732857346945
aF31.635833697912354
aF62.98767936704141
aF58.023863865014064
aF32.20816101461262
aF87.66428542849832
aF69.83880209929634
aF67.69465186218568
aF88.40128278045724
aF22.84978652520759
aF33.114705907782216
aF21.347509538294606
aF63.704365091933504
aF73.92887445675498
aF27.601446001129858
aF23.62237031212384
aF27.253119020104062
aF82.0856576441983
aF39.79326741313215
aF63.1290094663291
aF35.32516445607288
aF96.7597080986121
aF67.9145981333737
aF33.09921418080394
aF26.607423183080975
aF43.82744848812227
aF22.51528129250134
aF29.880180390573283
aF42.794452326832264
aF38.896892707677495
aF75.36068769939737
aF43.69509563839715
aF25.63899368645615
aF23.841749813008818
aF71.55802643372529
aF44.4917259552421
aF30.503985752698966
aF41.267610987742785
aF71.81458799437412
aF28.210066870749714
aF49.51640088920952
aF33.55220259195987
aF31.276230431096945
aF55.39397872007644
aF98.3456810104387
aF31.345395955671826
aF53.401945135305695
aF67.33208124639685
aF44.553749524015885
aF41.501011438648845
aF37.97445598248672
aF48.30620904699179
aF21.344390886349327
aF34.517654350699985
aF28.685299508028756
aF35.76791604792949
aF57.767873509541815
aF55.55357608312483
aF53.775405197836214
aF31.871824566592895
aF28.637207237969683
aF38.78524032276564
aF34.95511303074172
aF24.109839331694115
aF25.271204911485587
aF27.08112056770483
aF38.45416225022109
aF23.12406524806492
aF89.20920749768585
aF44.35135908377546
aF72.20083944948229
aF30.03476526652352
aF24.278335831207922
aF24.651195661720177
aF44.67840421619225
aF98.90477557632984
aF49.47431860112893
aF33.90194681741356
aF43.102335221716466
aF25.441938004643767
aF56.63398936042721
aF26.94504943351467
aF26.181274632489647
aF27.67433378975776
aF45.907190445777616
aF32.157525674695286
aF23.216521610696798
aF27.655018221391153
aF35.49866893593948
aF36.288500708708185
aF29.400795046620253
aF56.769992770754776
aF88.93915468695528
aF25.280907792010566
aF31.856349287122498
aF32.317234596791714
aF25.0000891582208
aF25.617133711374706
aF22.01308346356052
aF57.620404690198114
aF35.342682063848656
aF30.177372177570902
aF22.153971867426108
aF28.14304337117664
aF34.312892548022134
aF29.16765341000444
aF40.57704805962545
aF25.922195376779413
aF38.465563791410155
aF34.07248473149564
aF45.89409351970933
aF22.963756723566515
aF42.15017952988643
aF33.66035917788064
aF55.1865361889973
aF23.947770502343623
aF45.085992900148185
aF39.321606401474
aF28.577143303148475
aF21.344309533842875
aF25.035498595925816
aF25.6899469104107
aF77.73734452648773
aF70.33373851114229
aF28.0956925621938
aF40.27972755585634
aF32.085900463002766
aF56.277947512321454
aF54.78103325682508
aF53.99044502671534
aF94.14677383427383
aF40.26063163337346
aF26.96275232268722
aF55.407420661177866
aF21.7998454209914
aF64.58640751400742
aF65.3229275499543
aF33.627973009022156
aF47.929343678209406
aF30.433854907539107
aF81.70973686701998
aF60.21824659903679
aF29.537641785457083
aF54.475120996833496
aF28.697989714820014
aF71.38410677681367
aF66.36281674957735
aF48.969817756449665
aF22.189741786735723
aF25.441508462563128
aF47.087559893979304
aF26.69805277874483
aF33.40822203657299
aF28.0458981858077
aF49.841587830898035
aF71.41061261220702
aF79.42989319624124
aF64.15292823928189
aF24.768746967826313
aF23.516053955344027
aF53.849359171565304
aF85.43453505098887
aF74.1713771473977
aF71.83778728867347
aF78.1763963258021
aF60.06756704359539
aF22.04755262393104
aF74.65155336691524
aF26.42233789875244
aF29.901086861603048
aF51.52147380330078
aF77.00578563878528
aF85.05650908429928
aF54.79488433714421
aF53.71821983187529
aF73.34879695714557
aF23.353801114204956
aF91.63599587365404
aF29.675826215557755
aF88.92859281583821
aF86.79730705285552
aF27.551682188534496
aF27.742614327352776
aF27.78407459019163
aF69.5270480962916
aF82.43116883506791
aF43.73124107375141
aF65.66193839731037
aF29.670756983599343
aF35.672368523353065
aF35.0051431885389
aF77.74480662303503
aF54.369891620490016
aF46.148328239016
aF35.182257175296925
aF69.74249459588611
aF87.79201815894996
aF60.329794966189276
aF59.7169949319714
aF57.828425015708916
aF36.611307579070306
aF64.99172465760881
aF28.058375707141515
aF41.97019864506835
aF29.490068620667117
aF51.98057285245356
aF38.300810470388384
aF22.18304635505173
aF27.050526738087108
aF24.55839155571522
aF65.46791469845124
aF28.914403520630835
aF43.08009389997203
aF41.0161285324713
aF24.714537294302737
aF31.96496234339861
aF57.360558597117745
aF71.09072292878176
aF60.998496813495066
aF53.990206292527304
aF65.4550870379098
aF28.151045038771507
aF77.31531133746032
aF78.32543239139292
aF39.560338013279804
aF69.71116770237687
aF26.05826310502088
aF53.600808215866785
aF90.16780014091842
aF32.834116538087095
aF43.23098779094613
aF49.33922996878252
aF29.153089729773107
aF28.614676550552225
aF32.991574384667615
aF54.16295894294214
aF10.58929075521937
aF46.113386668035176
aF67.73449484150727
aF27.454112011222342
aF72.34070422625928
aF30.423387728218174
aF27.970248936660024
aF82.20614639001582
aF33.196041564748946
aF47.30058279497924
aF24.50232013103252
aF42.68842440251545
aF29.048147664446475
aF63.14409178060744
aF24.61312476400926
aF63.92265942999672
aF65.4607237663368
aF22.4746340241696
aF27.677228753260454
aF33.06183158475178
aF80.3192131914016
aF72.71636133623826
aF60.7736501077931
aF23.440964518945236
aF86.8197045311498
aF33.07922187833871
aF28.411111745859657
aF29.267289389945418
aF28.74173564041501
aF64.61380203315687
aF67.88485174394307
aF29.088119611247578
aF91.2076645429515
aF46.00065426318754
aF58.20990904322776
aF32.97241546841323
aF25.008550275340586
aF64.33887714574976
aF33.834911218354655
aF55.458613966678485
aF20.91732568483777
aF57.023385466746305
aF73.9798145865212
aF50.29942314638488
aF60.360216555409295
aF39.013259023912205
aF68.13337975729029
aF23.394616226190557
aF79.204849118172
aF39.20062925359026
aF34.182717536541816
aF35.78965593337358
aF30.506930706021635
aF34.90189470812034
aF28.274152144408987
aF49.27746542283087
aF47.22053640871604
aF32.41934608091562
aF21.536456969402206
aF80.63058403363847
aF66.28019404209121
aF67.83240742172991
aF28.92195829139938
aF59.08315264454544
aF53.19394315362059
aF57.420198579118505
aF67.11892213358489
aF35.125571419713005
aF59.76482485488104
aF27.679750822559072
aF39.07597783185892
aF98.17700803525645
aF85.81855018053479
aF63.002413005118655
aF54.60949007063498
aF55.48456242334354
aF39.149153684451804
aF74.606974303369
aF80.09697301864901
aF17.234886701387943
aF86.02695786953916
aF51.43826958939857
aF53.649239769578514
aF27.47746693748145
aF26.312793174823447
aF49.75452791217502
aF62.58025286636003
aF26.019022568018304
aF55.78973883759999
aF49.660967319314395
aF37.64917524837061
aF60.98033117593009
aF64.4272905679016
aF30.671586143050167
aF34.3399984776277
aF45.840870153509314
aF28.242739186784444
aF47.20570792371
aF22.825618810693978
aF53.139019653091914
aF50.58878282269276
aF36.4299955703284
aF89.33585566581353
aF42.35894648733874
aF45.567818482576314
aF53.567953392633314
aF42.75969450648478
aF55.635841757966794
aF63.545028825164664
aF42.38655899754969
aF19.929450535317308
aF60.57959622293765
aF29.385028793947228
aF52.54638565318178
aF64.6866078986074
aF25.173473999099315
aF23.02855321099384
aF49.94367162602592
aF57.63394402094507
aF60.445817795708734
aF29.255439093293113
aF46.06450081759927
aF60.43822428667539
aF53.6880752039617
aF40.46238428307785
aF28.53295873689025
aF28.910128952346554
aF21.018023122716553
aF81.53532985739614
aF31.417115803059247
aF31.654218574500714
aF73.21149135665266
aF24.068229124503503
aF27.7542416817197
aF43.693162252202484
aF34.468825532791016
aF30.996405320332755
aF28.4844119410879
aF52.73742454093922
aF38.50434212998748
aF54.54418314652598
aF58.49214063006043
aF41.31523526500935
aF49.29086608378623
aF36.0238617107871
aF74.00706746197588
aF24.893602738263546
aF75.5778597707963
aF24.86903777226358
aF37.75617948724947
aF63.52688537191341
aF55.18029876950873
aF75.35989274912501
aF26.32868284906063
aF64.46895958331092
aF34.35295406101153
aF25.00488249644468
aF45.59678521530023
aF70.17525304987767
aF61.86654250682546
aF39.78550282506272
aF56.26898060594739
aF96.82937324797543
aF46.84218722067503
aF52.05460426568509
aF26.728813737599655
aF69.69425450599604
aF55.61872457458789
aF22.69283435356187
aF60.84700516169616
aF46.14562929530521
aF43.738827370346485
aF46.24922585250776
aF44.089552045753265
aF46.0338502506995
aF84.02263411031652
aF24.394536086979745
aF25.079213123575926
aF47.653057705901624
aF27.86520690987192
aF31.49484573415449
aF23.01318069867627
aF77.57073105272283
aF52.061201909292315
aF25.18095530267222
aF35.06382621315585
aF48.37101682688452
aF38.26728153987601
aF31.61355943442645
aF38.84203744331572
aF92.12818752969748
aF42.94967928651525
aF24.336024865983198
aF38.42941686334234
aF48.534191590386214
aF36.08869141372671
aF52.63419602091509
aF29.69609713578756
aF57.72668425543601
aF72.16237666022178
aF22.419436476154672
aF68.45736500140615
aF27.93675773199035
aF58.77271289022691
aF56.829964073197296
aF27.052998893144625
aF58.233665908289204
aF39.00027896753582
aF64.13131093251084
aF63.496614581252686
aF83.72082720967893
aF95.89803077059698
aF42.93181422345059
aF55.385342985054095
aF53.40680313122307
aF24.723804439010774
aF107.4933940105696
aF52.452265502680945
aF30.13878707186787
aF43.63335755459053
aF38.259777221065406
aF61.70841861843561
aF66.77590667757953
aF46.80633904081003
aF23.927482371530715
aF83.98949892278142
aF47.59582694239722
aF47.94159414743298
aF34.259179587729164
aF77.18528978915333
aF47.75574920307952
aF35.051406945534325
aF21.556332411136083
aF81.71622831474701
aF47.189369109009064
aF55.27624987015046
aF20.962231291308637
aF82.91583311454193
aF23.285886046112186
aF41.45224872607804
aF28.90098050668789
aF68.66654005384356
aF22.499085197340627
aF70.2897724244734
aF30.59127819852176
aF94.45713304382075
aF55.05740307162961
aF42.604621658182225
aF50.91588598078005
aF79.4305228598698
aF34.2158186562082
aF32.714265414388564
aF61.58739964791355
aF28.397920515651606
aF47.07724649241517
aF31.84102980573102
aF75.93275668496673
aF40.85083043743184
aF14.454301458909747
aF20.95109658924526
aF24.725553624979824
aF44.82270527365985
aF69.33533451637831
aF63.37765402373161
aF62.71760763525225
aF80.17164572790685
aF34.991019348779716
aF32.54441032487265
aF86.97414154608704
aF31.264683831544346
aF96.96071881701717
aF40.443810393246075
aF69.16896889629493
aF24.674573112793997
aF49.183290515276326
aF27.972099917017317
aF38.843098259831194
aF25.949737769685633
aF28.64044440252917
aF57.22603293300609
aF20.822785782142326
aF22.545601845642366
aF22.17959101709468
aF26.773361815984007
aF34.88597772266533
aF59.992806930190284
aF44.56375216061646
aF42.715440111510944
aF21.234384834655533
aF41.017426563235254
aF30.18264123021939
aF49.865293614668175
aF29.535846522628614
aF25.478202600059923
aF79.44717375063368
aF47.8750729107351
aF26.626371730736054
aF35.791234475118074
aF41.14286061257127
aF50.76107443701769
aF41.3091708266943
aF87.29102495503464
aF27.103303853414307
aF30.72816741851694
aF39.77210395716338
aF74.30131179823624
aF36.72280934282168
aF38.423068752044884
aF25.738001121517403
aF24.423977317907735
aF61.58770548489093
aF21.190553655225372
aF33.86209617497644
aF57.710287919104125
aF25.384189016908824
aF22.25863680859156
aF53.1504460985278
aF61.09121004175904
aF56.82871212600131
aF39.829780222034245
aF28.338517505519356
aF49.12050552750057
aF30.914289352468174
aF23.7293709874355
aF53.56913466737771
aF33.37864721218614
aF66.48579158691143
aF17.45269979855017
aF48.59662340184937
aF75.2251580367924
aF22.051278427033324
aF33.76135529680617
aF86.49273994421391
aF22.918897540579874
aF29.46798648632353
aF33.83552297046378
aF44.634185137423046
aF38.65276037984615
aF59.677539214565456
aF20.038623897586138
aF51.74260776417995
aF64.6420038305044
aF22.49049212713207
aF53.51210388843762
aF48.986593216476926
aF45.034346152381346
aF36.233348993560085
aF26.422920509187367
aF25.809987827238487
aF66.36654741654957
aF32.075942224892934
aF51.458798859894415
aF29.60346465688589
aF60.11358146547273
aF27.348111668800556
aF42.23824958604648
aF37.901065179546194
aF64.76932514509258
aF43.852294614995984
aF24.634463048976038
aF43.43862900239144
aF28.79956804660663
aF35.13577038589058
aF34.37058556687654
aF26.833052998349366
aF90.82344974277603
aF64.58714079562967
aF71.91276719222765
aF50.592383698023056
aF35.84414174079928
aF35.65980750686826
aF53.409304825395246
aF84.91558656901425
aF24.01647289543179
aF57.06137037592386
aF28.141256743216353
aF75.16351941223364
aF66.6259272919845
aF55.31028944324711
aF24.604700194460992
aF25.854432033064732
aF27.39798814514866
aF42.27192162676033
aF21.2581515808918
aF26.29272836001457
aF37.17640026154447
aF21.16160272631728
aF31.737601993771996
aF27.47771361196198
aF22.5787773988697
aF21.683288795571677
aF52.93936693240393
aF23.9572857595862
aF25.057340490811796
aF97.15941381551663
aF37.67783394422776
aF25.314967698467097
aF40.95694849514883
aF25.908984774550444
aF44.47384887642373
aF51.38239095587828
aF22.660122347816774
aF61.42140074000085
aF34.13349524986035
aF87.60240696259972
aF60.40162032745997
aF61.6597052367064
aF38.73243564995498
aF66.91569848493506
aF47.75215985655383
aF48.220732488902094
aF73.21658587150701
aF27.269819111841358
aF63.91083832555405
aF33.93091810611938
aF30.998134224047273
aF43.52529799091069
aF48.4625479087219
aF34.22856931518869
aF64.88610551668717
aF46.22284735665996
aF37.76150994273313
aF45.83852838640257
aF85.45440847391335
aF67.63971955650672
aF58.28328217034277
aF94.74842633758556
aF46.395342332652135
aF105.55706695586007
aF40.41248354180382
aF26.8192620616083
aF24.291240729353206
aF60.769049692064485
aF70.8035047906517
aF35.657583721147134
aF43.82830573901438
aF56.647499156516986
aF43.71209905644571
aF68.87898198313698
aF53.66229199499428
aF21.620657568238215
aF33.37277879669301
aF60.70579176023102
aF32.27842288710863
aF21.960389885549663
aF27.229592161353946
aF90.49030948817979
aF38.18539343158916
aF40.101032108663986
aF17.11168799939113
aF28.439392659916813
aF67.93950273164364
aF21.902865152778368
aF30.56950255786839
aF78.88592218900278
aF50.85532531315328
aF25.932274769253816
aF28.286451319547197
aF26.183453619155546
aF21.70669458156165
aF53.77006699299163
aF58.53941021417823
aF76.67433679318229
aF40.17656087603421
aF87.35955770698556
aF24.918589663914037
aF84.04207691418455
aF22.832043418915465
aF65.17706772308622
aF48.52356881923451
aF66.63760437446149
aF53.391090765389386
aF74.67862451889467
aF89.64645671704716
aF29.184277261200336
aF31.070204090863736
aF60.60672362470835
aF55.25914115287035
aF88.96448669501422
aF28.641493750505948
aF65.9651740137538
aF36.214891449460495
aF28.857444412107206
aF33.41505352846078
aF32.28893619125719
aF75.73752158637461
aF33.36986936378486
aF55.676966913342405
aF71.96370561255947
aF39.98961027500212
aF60.94282288716482
aF42.33897277472859
aF58.007588202701626
aF46.552732016513446
aF52.955578573245745
aF67.60704433123381
aF56.80090108847764
aF30.768583874841422
aF87.87512240456775
aF21.961228687244446
aF25.953326885646753
aF52.523359882214486
aF56.82713232735417
aF26.183382609766763
aF34.72894033607445
aF36.99100431118286
aF23.395319355043323
aF56.61480146695201
aF71.08733288600801
aF57.98862586886104
aF77.41269494161665
aF91.66569087980649
aF42.58741391810453
aF81.57499958091543
aF44.77765962544593
aF25.913108352033987
aF33.53901977830462
aF33.95752862106205
aF43.68305937164497
aF41.20636124457063
aF28.012386329121554
aF21.399276552615945
aF26.292773017338774
aF72.04068463237084
aF63.614090887116625
aF61.22290534911299
aF28.55010661077701
aF40.5458129738577
aF26.09215514563722
aF80.14945554424783
aF24.72880700287192
aF36.399582515041004
aF49.03267540786297
aF55.37496484801334
aF97.70079610582026
aF28.834144556849267
aF66.91578033125361
aF88.87013142903245
aF66.98035155748121
aF47.06508293314643
aF97.12499845917026
aF31.424832539570666
aF60.394381622461275
aF34.57576414428684
aF96.14267611592874
aF96.52097704911826
aF54.017104641049166
aF39.249478692102414
aF50.46255118585565
aF77.04274987685126
aF38.25592813258848
aF82.18496120332824
aF47.892987458168705
aF77.75218870177413
aF90.6761224781808
aF90.97659597895998
aF27.297103400425442
aF67.98898914521592
aF31.719728921603817
aF23.582547128730944
aF54.75531395620765
aF45.97174581164145
aF34.00004268099813
aF32.0990140607998
aF43.527209718437014
aF27.38382964213507
aF32.314994043919725
aF56.826541466058984
aF23.379705824385233
aF34.36635531940667
aF33.11748574023665
aF87.54263154139483
aF72.08986133207608
aF26.96940403243892
aF34.94636707453674
aF39.444984494868095
aF40.11246556971581
aF93.81952048792847
aF46.592239773268616
aF26.451803270486433
aF47.516626179249776
aF34.91367417694622
aF36.974697396114024
aF32.97256286447927
aF21.307145871108702
aF55.07229115598212
aF30.90573399119132
aF87.29656049524479
aF87.71197706183598
aF44.25119575024698
aF34.654114293793235
aF30.41823150840781
aF51.91571924850341
aF29.519205716390907
aF28.228601937088523
aF39.41508098396767
aF25.484730923884175
aF33.767397339744484
aF29.251236428605132
aF37.35275006840607
aF39.68167232751996
aF29.937227121051592
aF48.71585668908893
aF36.91166269532967
aF27.391815474593173
aF24.91589742558583
aF27.570857612673613
aF29.624685274615647
aF37.8252039930872
aF38.820692647503094
aF70.74987576372601
aF37.524670060559274
aF64.47527863502722
aF56.43535898772471
aF59.19751149982381
aF24.279766795355222
aF37.278112269724474
aF32.08714655329559
aF41.64548826491894
aF41.62251182349932
aF51.8127756068787
aF99.72490890120862
aF91.49473679675823
aF70.00140020237978
aF36.36856441959261
aF42.34907372672477
aF22.093867419388022
aF30.747734482225795
aF85.90061283914892
aF27.95021788022396
aF24.510720875485145
aF26.698826045332414
aF55.296698973811225
aF63.55573589230812
aF29.110969893818044
aF29.728300940532726
aF24.451877683007897
aF37.183161102789455
aF83.79237253927081
aF26.94018787738782
aF27.61287634444485
aF76.22382960500494
aF31.25692059379878
aF38.302123526456256
aF56.466861203426014
aF89.59286072380985
aF52.16854737483496
aF33.80649097824241
aF42.84412704575966
aF30.849674112635583
aF42.01277299668027
aF27.140745303110037
aF24.74151058040724
aF34.30334446934087
aF26.32402046380541
aF28.683257829968145
aF44.2114394623561
aF29.567723308096134
aF21.753706137069294
aF35.54156799180005
aF33.91166097300107
aF24.702468795156047
aF65.04765894401999
aF39.2633522883624
aF55.36566663448999
aF45.92140529943683
aF29.330132608201623
aF23.49560232658168
aF27.64039033580974
aF45.614753629677054
aF34.32350843357748
aF30.023058195608407
aF86.4240238500785
aF44.597702151853454
aF15.414865319461514
aF45.04559938632602
aF107.14474949740804
aF57.52863927049847
aF36.94069708903103
aF33.683974105582166
aF54.35179217258287
aF25.05596825699174
aF38.81425491337909
aF26.756243070587615
aF37.68244282863701
aF21.312724925082104
aF87.27767553104222
aF29.943583038236458
aF29.7819915247213
aF25.95241513130076
aF30.03800378480863
aF20.795804515777057
aF30.051919769542714
aF41.84666922373441
aF31.68873257706386
aF32.03198259312833
aF28.373718814398302
aF43.07741117621457
aF32.946647635126794
aF58.93467942144665
aF33.24334989467685
aF25.990027852401397
aF26.066458086093427
aF82.38646452312057
aF41.403407489765065
aF24.46046648868465
aF45.328724873257244
aF33.661943430899186
aF28.704081353446863
aF39.69041517587
aF38.89050465663368
aF72.25128620289911
aF40.72588975758397
aF35.57391547629433
aF42.17824979428461
aF28.08399672142192
aF29.884635234792356
aF25.51615964174198
aF28.507477188406803
aF35.95231433349158
aF31.83605558436761
aF83.82781284402168
aF31.678580109908857
aF34.016821535990346
aF47.977395184832986
aF52.28464818811897
aF32.688766508301114
aF40.09678851234828
aF31.786416408174745
aF25.764593829109955
aF43.097189109180036
aF70.20705322207519
aF30.87016868336611
aF56.18386269081278
aF25.483294220256656
aF37.938158320435214
aF33.724823407173034
aF53.54325578480349
aF27.770304691709008
aF62.584905792788675
aF88.8903706780643
aF74.71707971577803
aF61.627993003909594
aF69.97019327020494
aF25.52834052599031
aF67.7752728665944
aF28.121930983502132
aF57.29862326964014
aF29.793930682115267
aF63.344637536516835
aF21.029612888432187
aF28.65321991669724
aF30.73299343866246
aF31.112860123862877
aF34.0696714366061
aF47.42837368013663
aF25.14962607863692
aF27.492271504841202
aF29.915422548993547
aF55.11593902286003
aF24.732082064384873
aF32.07658186159969
aF49.043592564096
aF58.815820220988286
aF38.434925869365415
aF75.84292491762781
aF51.79019038597653
aF29.811431099264595
aF53.1993622706858
aF46.41965714405778
aF53.150721657145056
aF31.8075385373704
aF27.18207473392879
aF65.2005419465908
aF41.796646550573215
aF26.063369310945014
aF28.137037420429223
aF21.360115357474346
aF60.39068527217706
aF30.55273408996159
aF37.67199543248644
aF56.79762041925488
aF24.526787551670235
aF25.345477404470806
aF36.84467842170307
aF70.62813475198055
aF28.510029554172174
aF53.632591833864744
aF72.01346681267016
aF33.87199976697558
aF40.785133499137046
aF29.521945157284275
aF24.101432620401177
aF21.755468841478184
aF46.814797300049776
aF35.46513737460557
aF25.109573167922342
aF58.78547409014479
aF35.47301954289484
aF34.041056165095135
aF34.87937666790638
aF43.56555326342282
aF53.80466577066376
aF29.757759491149464
aF21.73415591015174
aF71.19678968174927
aF28.19454171019649
aF94.17274799063284
aF29.0826811732519
aF28.765379094204487
aF50.90705494477958
aF24.403300270661212
aF34.468118423663036
aF23.25585461944761
aF28.5033696464328
aF32.970014042487065
aF39.80217671307365
aF52.53078058407266
aF33.994933232807135
aF30.869816101854443
aF70.05129575830793
aF77.82501772421128
aF37.869886773728965
aF35.8887634139686
aF98.82136514640787
aF71.35456372364712
aF19.13075461816084
aF48.46374235682684
aF25.541055988955737
aF50.72351547700502
aF38.628506342549514
aF30.96150137500817
aF94.26769556836707
aF46.90394188313024
aF71.27423691456522
aF66.93331261840115
aF45.84899237107764
aF37.43877622516092
aF26.717772902906145
aF85.08868265460636
aF23.80316776452899
aF32.97801464918597
aF51.38891012164368
aF72.16813110566125
aF39.62127000942395
aF22.226147084887078
aF22.05926407078347
aF21.097775688581905
aF67.96667827175415
aF32.48527646660075
aF36.5810597169581
aF73.358114891578
aF42.813517859527416
aF23.903197547309528
aF45.72787066401423
aF27.548912006108036
aF56.0667857505044
aF42.884701197611804
aF60.012681847658676
aF28.858403195282676
aF78.09631599279777
aF25.22150602891202
aF80.80300505901005
aF80.9892966688113
aF52.848170438845486
aF71.30023282091345
aF70.11158493259418
aF61.301517958942284
aF30.202988643265698
aF41.2119852593643
aF24.703156081455205
aF40.5440981395778
aF23.908548910260453
aF36.60679883390402
aF27.13112620326903
aF41.18453870941491
aF28.86156906777568
aF26.322262986882258
aF41.609623702298144
aF39.036141708836716
aF23.932912738547692
aF60.24039461237436
aF48.8573005439762
aF68.29296753517056
aF38.357509541681125
aF38.311152156653
aF85.98498496990074
aF55.516263646006266
aF46.96806684749059
aF37.69075594877799
aF44.18504558363032
aF39.56988967614393
aF70.63650886680534
aF25.312266999611914
aF33.3357474172127
aF40.78024577995725
aF41.72047396919594
aF25.13617425241702
aF69.41073762805512
aF59.669768451947405
aF46.06640624746192
aF58.82584502077694
aF35.648906870952075
aF80.13791506243807
aF29.17539446804628
aF20.980286423374157
aF29.8695028754452
aF24.953314062060322
aF81.51222673173677
aF49.637725369580174
aF86.5881802948169
aF93.05210918114143
aF36.551233593148304
aF63.73396503810831
aF35.98181455256025
aF64.63244317977151
aF75.04137333231714
aF24.171933662175817
aF24.13903693459016
aF70.30026886821591
aF84.11112453924709
aF51.489023077464026
aF29.902437814858615
aF34.02066015912962
aF97.35073445707216
aF21.100071451857833
aF87.47698680073037
aF46.458566670250846
aF29.591243136476084
aF95.44980591406049
aF90.24111268177825
aF84.96565659598531
aF57.93953328999128
aF90.02558309389623
aF53.408966825988855
aF58.862082788780114
aF95.39776440212918
aF21.152328276638077
aF92.95958662751721
aF98.53023701503297
aF82.05914245100627
aF70.12275968474182
aF60.89197233422967
aF94.06861293734418
aF52.87625294620266
aF51.736866464680304
aF92.49408665541331
aF22.84727815306403
aF56.53822852150096
aF62.709642850969935
aF95.19646033525457
aF61.251084371735445
aF30.92189273565588
aF51.0642401482974
aF59.85402646017093
aF94.3976034082488
aF75.35603745676431
aF22.620952462443007
aF97.96640986256942
aF41.236338289456725
aF25.145031474915836
aF47.31566864170038
aF77.66019183489325
aF35.21408100411517
aF42.18229034880498
aF84.49145810037302
aF64.67112574149743
aF58.48218658288903
aF61.501829898555954
aF45.033563273863905
aF67.57195978603453
aF63.39884465446733
aF60.16679300172876
aF59.16850740626496
aF58.644942191181144
aF65.77248168794165
aF59.57127773442126
aF98.75096109218906
aF70.2831788248312
aF78.84964673605086
aF67.22491262231436
aF75.27708925373906
aF43.856181092167844
aF24.953817017502885
aF71.26242656055504
aF72.75671381258297
aF61.651318440530936
aF57.31689290799041
aF96.24808965868569
aF74.02187344356037
aF44.45145733852674
aF80.86798350489693
aF34.058547250397844
aF41.020239862996476
aF79.7952853598015
aF78.19046460815682
aF69.39833451419095
aF38.22603208190978
aF35.19214561412029
aF34.16614866578162
aF23.277623171743624
aF85.85561607544642
aF74.27100886494952
aF85.35851577479707
aF35.187667768312934
aF77.67527418542542
aF29.844641007963332
aF48.13139946566143
aF79.72860789303157
aF81.26869256609251
aF60.769125434318426
aF60.46219258721316
aF88.74661437716122
aF38.53769524102539
aF72.30168612923711
aF40.797504153443
aF84.60842365734835
aF78.18148230661964
aF91.60358769300322
aF78.99893145809679
aF57.29532649258982
aF84.83891382300374
aF46.498748557448806
aF43.660784659880306
aF87.55533924374399
aF56.718164549241045
aF86.39305791595471
aF59.63542660813133
aF41.22297057780929
aF25.244957689126416
aF53.86207570798748
aF69.18233281745499
aF41.41870020038783
aF60.761834863023566
aF73.43332394620646
aF61.09898464737175
aF86.05373573187832
aF85.53292492695367
aF96.71908929295478
aF89.63221185240253
aF89.6097617977127
aF78.04314062777641
aF61.97390701182107
aF88.60935790456656
aF84.08162074469048
aF28.48400067975078
aF92.75488512791544
aF83.91843605691489
aF78.78627623938952
aF94.92031176258766
aF83.23117544029603
aF90.94020452647294
aF80.08493510199574
aF91.45118039111733
aF79.94082152972688
aF58.860845782486216
aF42.08639279923656
aF82.57564954142879
aF95.34339001559326
aF53.37671022378037
aF82.38055692741841
aF56.53065117910819
aF86.03834150837253
aF36.788049142485896
aF73.69424765778365
aF54.005483974389044
aF81.28019514181591
aF82.27788654011131
aF38.38331478684954
aF89.3558389164931
aF82.99361291511428
aF44.51973852549148
aF45.52029523805641
aF86.3443603647668
aF52.020526132682974
aF81.64829660022102
aF70.90566189509013
aF79.77243894362472
aF55.421996429281194
aF95.80829666463848
aF61.00200874394423
aF51.190460335050105
aF26.957166009093626
aF50.42153055478382
aF71.22394743619887
aF44.931228240060896
aF78.15860423084413
aF60.89236361516051
aF90.94657853693212
aF79.98994396690324
aF44.51992032004429
aF47.33755831988469
aF70.34726900401603
aF92.56542087753652
aF86.52936596156565
aF45.50166267202788
aF76.6725241912805
aF89.0637423623896
aF91.52120094187352
aF89.62287618473123
aF92.67704787165422
aF40.52856081314697
aF65.6515348041974
aF87.49045337031889
aF57.432152513280585
aF66.19591478308901
aF47.20934553849243
aF70.41107021627747
aF71.624244055726
aF95.19705534042451
aF66.72479760249466
aF55.878564960674126
aF63.35743901654378
aF90.10262198098339
aF75.06244375971424
aF44.7014133501485
aF44.40571628731531
aF54.907328060455036
aF96.4173035073901
aF90.4189491185253
aF84.05447619092774
aF43.86054197974591
aF53.811796144302356
aF44.87418364813922
aF43.40612189712685
aF48.17650873316917
aF88.21737576694065
aF93.74231115006617
aF31.243579560071332
aF89.17976626692524
aF44.988700079258436
aF47.22500356862835
aF2.0014672821181954
aF47.736547923238305
aF36.09681241777809
aF42.70454616029904
aF17.82232532352898
aF41.330465012461026
aF21.70128822093954
aF49.43297868371866
aF23.91982503350891
aF85.81110938950218
aF32.62823758583852
aF67.88561897121266
aF30.44856985517549
aF24.50332722337909
aF59.36703595802311
aF46.117596577187285
aF82.86788279077994
aF69.08187308502886
aF18.870733148112233
aF30.909683592756146
aF78.77979721134142
aF33.67872691108091
aF44.81050264444014
aF64.7019899771323
aF21.857760916900702
aF41.78782213558212
aF22.43519394916136
aF32.06640222592013
aF91.33236313321956
aF90.82617213069688
aF44.24329047616217
aF34.0667534994565
aF45.70894156102551
aF47.253161369833066
aF31.223486668950425
aF93.62057481287634
aF95.70424334652577
aF25.672712411392496
aF91.82651961469783
aF71.83823340478952
aF81.8178941340754
aF21.2343104248156
aF21.63708625983093
aF31.162817768339288
aF-2.1895633981945615
aF46.912119584218026
aF27.376756181900667
aF58.31122650211027
aF11.580669155752577
aF41.066965583094614
aF36.57436354067826
aF58.395964202415826
aF49.25086058409008
aF39.88814226148551
aF49.57421378568331
aF64.96621731770006
aF39.953579094387536
aF76.10902481714638
aF27.045056141346368
aF59.91714384766686
aF31.82938098570852
aF25.55072573331855
aF29.00512733902364
aF50.599832409439
aF40.90061296891443
aF45.390837308037206
aF85.87656933767323
aF91.77573300631842
aF31.236380622549106
aF26.639361415886867
aF64.19079998504036
aF35.65468134016521
aF86.13281420418677
aF37.29988496784519
aF42.834251547777114
aF78.491348265976
aF28.771953590050565
aF90.88772200601134
aF25.506629512751793
aF82.86162854824532
aF44.50377052929515
aF73.7014822117288
aF86.88392908161839
aF32.3007584962337
aF63.802607700689464
aF41.48231655880002
aF92.8800667563932
aF21.92777150302468
aF25.03371622614273
aF35.33601744312767
aF77.24725900485379
aF48.95998549077086
aF88.23316870664827
aF53.02853815435057
aF74.32581561680013
aF68.22002647163214
aF91.6802116360916
aF85.03567744914238
aF80.76968149578377
aF62.313398403139885
aF29.24318428380321
aF71.28175074137337
aF95.07157720463094
aF49.34185131978002
aF83.39250992137477
aF26.8959187133215
aF10.47931567456185
aF24.712714658688316
aF43.482475815880264
aF44.5255635878905
aF40.19422465950396
aF33.757774304349354
aF43.26931112804304
aF32.85080487484029
aF15.738563690989716
aF59.04515362006276
aF95.03714087163297
aF24.201405759253152
aF33.068012114349116
aF21.475669876457076
aF87.55357849697474
aF84.64487567220415
aF26.475547653009865
aF37.24083009307813
aF22.272567600930124
aF68.84228442067403
aF35.902568295133605
aF22.125117217564657
aF73.11603193440502
aF39.69317369186845
aF27.6326609858991
aF62.37549091874329
aF48.47957203254133
aF49.93245330539928
aF37.991610211314985
aF66.95872747170101
aF21.12815823040894
aF25.817188109208484
aF90.1104531050744
aF31.668013046641697
aF38.66273316575787
aF40.0880586535053
aF58.334704458342394
aF78.49129557427842
aF88.69044571433407
aF28.825232093182827
aF23.4986988817634
aF21.100758794588934
aF21.795719374710753
aF23.659494411534833
aF46.17342934756027
aF9.260805533961323
aF43.76328768801888
aF29.546711810839874
aF48.33566732148442
aF70.13837325909785
aF31.85176139583048
aF36.08813163761873
aF19.657706675109658
aF57.91317374763193
aF28.23267079476889
aF41.05558327094362
aF22.552307211467284
aF28.055479896169107
aF26.91501001471231
aF27.185297057442117
aF22.00095610359156
aF35.662967121326005
aF22.787650367937303
aF34.24821288881313
aF24.808802964542924
aF30.94368055786918
aF45.30805085152249
aF19.023593218116776
aF76.37165684495073
aF31.3496525015386
aF25.085756938068716
aF23.473568730372612
aF47.89608373623444
aF45.61630198158696
aF61.605466917052865
aF56.25628436376583
aF76.24115430567045
aF30.376018934031315
aF32.81093282108037
aF31.36067531040029
aF39.07840947644353
aF23.950441984762207
aF27.666119956731848
aF48.45867649793108
aF36.51161309005407
aF35.84694280841103
aF32.007464686100064
aF27.254871821195547
aF26.34807245339968
aF44.49110349107826
aF32.029045468196976
aF33.76161048911474
aF27.492159082344365
aF31.975794355974966
aF93.2725943936392
aF14.255504101405066
aF21.99117329818543
aF20.907908794375402
aF22.210708610857164
aF28.72931332279954
aF34.0688675207819
aF33.828316819562616
aF26.582310345774594
aF21.135477739554563
aF48.965053763440864
aF25.70154634196866
aF36.09267469281757
aF34.285670856793196
aF38.91315186134013
aF61.76930814396019
aF38.68265604898965
aF50.382920283076984
aF62.67723087590566
aF29.41611580289107
aF33.91252411352457
aF11.732229524701074
aF37.03837181270461
aF51.65550639635522
aF23.37800317263057
aF31.627196265538153
aF36.317794909904634
aF87.55810978369975
aF94.21222383676536
aF55.2178380953579
aF40.84807253357703
aF45.25403262129059
aF36.984714076532285
aF25.94885207788434
aF88.81337398198728
aF61.63460394356493
aF26.24608323403504
aF29.362220938812726
aF25.049590593576198
aF26.568382501935716
aF34.36919341381681
aF96.28368554808979
aF38.57309556630999
aF22.706982327502292
aF23.58879290407748
aF27.884362112094216
aF87.04527046310541
aF21.936247514177992
aF27.120349537945106
aF21.876397394580046
aF25.520230089118765
aF49.80576476448949
aF13.96749640488449
aF38.970544861705505
aF28.76695364745698
aF23.78628206129573
aF18.679070577057438
aF27.254677263139897
aF29.178782072520214
aF31.74843554419678
aF39.747615615827016
aF36.13444820814317
aF33.476516778423175
aF26.742962337472036
aF45.009137893085025
aF28.396667137923874
aF94.1324109335688
aF27.941512654193858
aF36.68299246963649
aF33.22024953310356
aF27.005274536988928
aF27.785601632725974
aF49.816675280913074
aF29.856375303706805
aF29.40045203807608
aF36.38990037764151
aF23.57622206970182
aF22.911566965936867
aF31.174195595726744
aF28.911852387817536
aF33.91963320669039
aF34.044032510374066
aF24.229709140982745
aF25.346466878172443
aF38.406959018126386
aF34.50719538879777
aF17.028983158483598
aF7.597949334922028
aF36.77051686850487
aF32.122142510825746
aF26.877186789455656
aF28.546135827776986
aF29.01857814028143
aF53.45100834691679
aF41.6804347143261
aF33.98345772564793
aF21.324743875752652
aF24.63691387960312
aF27.99839682000257
aF30.326403008380453
aF30.443059379513418
aF39.86701975886244
aF21.723848054428426
aF19.538958900216343
aF35.95649319799035
aF56.50506294031473
aF32.023242329468665
aF32.31027325585799
aF28.10463317723445
aF21.49013699772713
aF60.45473222989486
aF27.12654869119219
aF48.18973189629092
aF33.28117320578751
aF30.465669534736598
aF70.33814920911695
aF25.10027323461093
aF23.761302161401225
aF21.596500480340545
aF23.154825205516453
aF34.65916652673868
aF40.88491838509096
aF30.770850444098542
aF31.608955016738015
aF21.312709231498022
aF35.94607893111509
aF29.687587346100692
aF28.52629374540513
aF45.71541337206253
aF90.44015208430218
aF79.55978310817021
aF27.703363186507882
aF23.72138037546712
aF37.500816547447016
aF21.100852014555624
aF36.68609588700567
aF33.59142251122759
aF48.39592925651627
aF28.19752018561313
aF21.98362782353904
aF31.17527512506897
aF25.60996970846843
aF37.72627241390925
aF36.249480352915114
aF23.517438323269808
aF40.62388821694032
aF34.59344625658974
aF23.42203398427253
aF36.93612198805448
aF86.90213857286287
aF27.170139352111253
aF24.366117753214525
aF32.35249407575383
aF36.630129209988056
aF78.91174130582374
aF36.667379356392885
aF42.28085776520698
aF38.824300158997474
aF34.33289977986221
aF35.19809948483317
aF36.32886012370551
aF27.79677993310424
aF50.55309080752432
aF39.640342498956095
aF36.75044153176327
aF79.31831921678818
aF66.38698185694388
aF35.09815783735959
aF42.53246734810919
aF42.17356981885449
aF36.563932417681734
aF21.443848409947233
aF45.55407905647551
aF33.8139891412945
aF21.722891679365663
aF24.452079511781207
aF38.196181622681095
aF40.87396456594976
aF29.774038028469384
aF32.052902557380314
aF32.01242247859086
aF53.46659677257187
aF53.524865262249136
aF10.331095347405599
aF30.153404044306548
aF42.16904188331857
aF21.63183415547086
aF24.354541458834582
aF25.35250277185761
aF42.06269550133482
aF29.614446900329547
aF43.114111598998875
aF64.88475438679009
aF21.42920852003653
aF20.683066105086723
aF29.946389974616977
aF23.508608530152955
aF33.612644120069554
aF22.433220982787535
aF37.702207244362164
aF16.698157137662893
aF28.423858134909644
aF33.45480935157347
aF58.5756602867285
aF60.09777885588229
aF41.73377734215312
aF85.22978748707594
aF27.434861735330976
aF25.196297403925854
aF18.40738063242508
aF31.51268186421535
aF25.69774049711107
aF27.024979352737965
aF46.09790310628281
aF32.12399758533084
aF43.94240033678119
aF37.08034985570646
aF38.68764587764852
aF62.01946895421757
aF29.57767319375869
aF62.35942969813938
aF23.812505415214197
aF35.52258896199292
aF49.23540497162969
aF86.75225259970662
aF55.338678974061246
aF29.89814521442075
aF27.144637827019963
aF36.35731225788065
aF36.813998405555594
aF58.59916174906689
aF34.28221381308684
aF32.09433141975488
aF45.100533583350746
aF23.104930023871297
aF34.090061692924806
aF22.251222634782106
aF29.4819016578792
aF33.30968773935409
aF45.96885701935457
aF34.30527154821598
aF51.10039049679093
aF19.43929842948076
aF36.21061384526572
aF40.00619049349774
aF21.96664421721847
aF47.49109162421049
aF26.61405008653586
aF47.878167500677705
aF14.706538001400752
aF22.517932970707136
aF67.34227922122834
aF31.892507391377798
aF30.004208592587908
aF25.337916538727214
aF29.021611429778506
aF23.227674186004442
aF27.331221304094733
aF33.67778718797394
aF33.54863087703253
aF21.765779549220895
aF41.671764307261235
aF37.143414732441514
aF20.18548158539482
aF21.209453676639736
aF23.151626284480862
aF22.637312590308966
aF28.459514686630154
aF25.979485410225454
aF28.87791620019255
aF27.041055151183198
aF25.518012755735793
aF28.142688576931757
aF80.465731845632
aF21.181422457043006
aF37.27463496280701
aF29.182742670521698
aF31.18429009320849
aF28.62770001025842
aF21.134971423596213
aF24.77313202505159
aF39.909603082823615
aF92.22281912710295
aF25.84400184457278
aF26.181816502853703
aF28.196639798184545
aF29.852416207413306
aF82.271313218297
aF22.043178240042874
aF50.30414668976114
aF30.960746155030346
aF40.3512126879924
aF22.789487888380478
aF23.21614255412802
aF26.33255575407613
aF78.48659481416055
aF21.794464854551958
aF45.27578747989186
aF91.3042690887124
aF82.48010032716837
aF24.96053239417496
aF26.161793939251822
aF20.28680343805353
aF33.57994178172893
aF46.00105151494753
aF53.75272118787262
aF27.205319494401383
aF37.65349015054146
aF24.930275022766725
aF47.91999877361864
aF71.86632455110055
aF32.8473642219613
aF89.60536912202959
aF27.519830128172124
aF27.346916790662657
aF42.66118218729652
aF38.0870809376208
aF20.197399890678646
aF52.42315179705633
aF78.39950372208438
aF43.02061772990828
aF18.25905042888777
aF41.18979449004263
aF54.80330137140174
aF21.588493090379586
aF23.123934018434937
aF22.425804604424634
aF32.849725286039714
aF81.25008333860912
aF31.553540461026756
aF55.39477597815213
aF78.63413459937979
aF76.44786142570831
aF29.304134584110237
aF23.569888478787394
aF28.713160610469714
aF24.782363436423505
aF49.07925132965584
aF26.388532566936224
aF38.83303992910351
aF47.7175419183512
aF51.944867562985976
aF32.26983048825524
aF32.10248988726988
aF45.57155449931461
aF42.931751333375146
aF44.40620782726046
aF94.69428722781387
aF28.893582166346555
aF41.34628583496119
aF29.230963389524554
aF52.4113383914212
aF26.671721592451405
aF42.11612225653744
aF22.92039148955855
aF36.18880658699824
aF24.825752922280873
aF25.999432163750086
aF30.681217045981313
aF50.41965338240594
aF38.74113875143388
aF27.419128727372456
aF26.170877262864046
aF56.82911729165528
aF27.806376473957396
aF28.226210499306042
aF32.144738673356116
aF64.99244013242259
aF48.34017517381378
aF25.663822514038255
aF37.18790675736223
aF57.76719270182394
aF31.69161133396758
aF19.40370882503361
aF35.505785645459746
aF86.05920763117939
aF72.96278749246275
aF55.05014371284992
aF75.94911942110585
aF40.449390605646926
aF44.45622610635432
aF62.90989471461242
aF44.766736412331184
aF80.60889324767982
aF33.545671097185846
aF19.69959741056679
aF69.85395268558085
aF35.57422453249621
aF78.30450275702447
aF79.17372292249468
aF71.13543902360894
aF77.22858903572484
aF87.19513998068786
aF25.84191952790387
aF57.57744592616302
aF69.47976983585426
aF34.43133527464706
aF85.59300244220123
aF42.71350764203956
aF43.60187930308152
aF63.806882361971276
aF44.21990217210184
aF71.16582614199176
aF29.632224640603717
aF91.0478754092236
aF85.6281662824729
aF27.2241272626541
aF25.061370409509394
aF79.25511559045879
aF83.94326073998087
aF74.00686258848569
aF24.84429225727102
aF93.28134947639478
aF84.13496175058211
aF90.75353651036033
aF92.30076223705508
aF21.431840700049978
aF84.57317752787898
aF42.48219498907717
aF27.726741948753336
aF88.8085040454409
aF24.69641568247976
aF35.158734480202774
aF22.084438262743227
aF77.31961660543635
aF61.77691856566463
aF64.74611299502743
aF42.22353937908332
aF22.013389313325444
aF28.24878652599728
aF71.90517202666867
aF68.58252012395812
aF68.04770451696879
aF66.24391894340961
aF86.21788307272179
aF38.053686378836986
aF61.24482394599375
aF73.86169389418615
aF24.066587484872997
aF44.67497574297343
aF36.18268371364094
aF31.130165138296675
aF89.44814434320526
aF74.0096801559362
aF82.87277761068084
aF67.85070960492592
aF65.87963579301959
aF36.546410899696426
aF77.14572896671193
aF51.01562974144275
aF73.36229506326319
aF98.89965988145617
aF27.775558179390337
aF54.61854874893023
aF36.56013429114435
aF81.75040038554638
aF27.29825509650351
aF48.222048309394644
aF28.309489316969128
aF73.49355063589897
aF49.52533642368567
aF61.07499172926006
aF24.40173296666266
aF21.228328559264856
aF-11.236589593756214
aF72.7057451175981
aF51.27514835158163
aF83.45767737816996
aF35.7845593779805
aF65.50961177573586
aF80.02830497416727
aF64.92962809219958
aF80.92980306392053
aF22.02070771251773
aF68.805494273372
aF30.989723499167862
aF78.4020595915569
aF45.722889876614204
aF86.50870634741602
aF79.8633955064136
aF73.20287239642079
aF75.42193638012021
aF26.207939686985696
aF85.86094935665369
aF31.916781841602592
aF40.92542313076672
aF74.080683420601
aF92.42475945658671
aF85.97935153403289
aF87.31002405440184
aF43.206281940329724
aF75.18900561457446
aF21.035252313167945
aF86.25670969761303
aF34.99757244594732
aF77.26526162010033
aF83.17581651746582
aF50.272176547753965
aF87.31956132232273
aF90.33999934996176
aF87.675999192773
aF81.46587217101748
aF32.67564272012275
aF87.48629914095604
aF32.10066856831772
aF21.002439194595144
aF88.38048785220595
aF34.45329897563148
aF39.26969375673299
aF45.51857905105473
aF30.482804053958542
aF39.00972409439277
aF90.0173609974444
aF90.63393067201712
aF86.96395818664087
aF35.721991700324935
aF26.730123546392836
aF27.134727864398027
aF35.92553427982624
aF86.39436254237013
aF93.63881857068205
aF32.41952689035674
aF28.09606482423626
aF41.08445516901881
aF44.40220734309072
aF32.12553689221751
aF36.92655627580604
aF65.91165205656947
aF51.12995337167891
aF40.874231569774466
aF66.51992509055424
aF24.607795696600547
aF78.58793926091892
aF66.97410525600871
aF29.274157578830824
aF22.660454726880314
aF35.86982012324427
aF30.149036060432024
aF43.961906579772574
aF25.13572016971925
aF43.1204729709366
aF48.474722485456724
aF28.740134449963257
aF71.66439433188813
aF53.588336872494764
aF32.016429300552964
aF32.82756813674516
aF27.284086185139163
aF61.783735397422234
aF33.849784588933105
aF36.838756253575674
aF39.265630600407306
aF55.660717586619995
aF52.1588061473031
aF44.07332414516977
aF37.24018421603135
aF27.101233687013632
aF34.43384231402665
aF43.17783050831109
aF55.165319793461755
aF33.45920181038374
aF78.79023223879159
aF37.389511572019835
aF54.42548973202825
aF43.655751407429264
aF52.016819274883794
aF45.77291962251107
aF44.77996409617039
aF33.34441653618926
aF30.68368894044304
aF8.936992583821956
aF98.640258946845
aF25.28010616947745
aF60.99352826008175
aF44.78481698429
aF33.569299829090085
aF43.66037330366555
aF32.387278429521245
aF90.63744413974828
aF33.55728118821171
aF38.7117519577197
aF36.959406755911864
aF36.63263009693488
aF54.974672981516676
aF51.423606278847096
aF43.789015535111474
aF36.729894174633266
aF56.93570291594756
aF38.265190249881336
aF46.80513395193617
aF21.256617488668876
aF36.15000810405259
aF38.26936186130381
aF23.10589449795668
aF41.4602633764887
aF44.986712504554035
aF69.31636103498249
aF43.09463574311329
aF26.349689343553223
aF29.41209623849965
aF54.774328902140105
aF81.24177144533589
aF38.18032150755795
aF56.29338766981261
aF64.84318075820372
aF98.1554399372535
aF48.298617040445365
aF22.120263430544423
aF54.609786124192404
aF44.261430147864935
aF45.88121550566674
aF35.850766086972676
aF40.859797583049456
aF61.549103373609576
aF55.43990940990928
aF37.69894432320784
aF60.89234831727808
aF34.00214132304329
aF76.28842020172328
aF52.898659726192
aF35.252013597690876
aF65.5721505226861
aF41.166116785811184
aF31.935080184926186
aF57.422956855839274
aF44.54954496246976
aF46.710976844441795
aF60.118421846299675
aF29.50940464271043
aF32.35715310701163
aF36.90408375015622
aF24.77034015275266
aF91.10582103217058
aF44.60734975034943
aF64.63331818170528
aF54.6077609725573
aF21.422087508245127
aF67.54170323957507
aF49.012867007884054
aF21.05133939022025
aF46.430313114072206
aF31.939208392782326
aF70.47077410402085
aF43.20113932584579
aF21.279199651399924
aF38.100455118569094
aF37.82735411123678
aF26.833308056933213
aF38.715947224689266
aF77.04004365294688
aF43.72941760841257
aF56.405028325296136
aF58.403719791207834
aF49.66491622905727
aF36.58954503930163
aF46.822557351107086
aF92.1831798452011
aF57.54366846149408
aF41.57447962014898
aF74.1492757544553
aF83.7479910934322
aF47.30600686416368
aF28.316612815643808
aF23.79735200662175
aF48.51472949419149
aF24.744345373029063
aF92.12213513288782
aF45.571506711794996
aF57.485053768517865
aF44.70280840714509
aF80.46908629334911
aF72.32992319865679
aF34.24871489410875
aF61.16513407088384
aF33.50011635985174
aF42.605375997441485
aF29.91510447709561
aF22.06175819301133
aF40.50809405648115
aF83.12957200209212
aF30.924961236149628
aF25.28379199030137
aF50.75345145001893
aF35.01657827299457
aF34.0309445932732
aF67.73247897638214
aF88.18915046163303
aF41.41504310706988
aF40.69847619420298
aF58.77598175626125
aF37.89592367136707
aF33.623870232247455
aF43.37586110597223
aF76.02977667493796
aF39.63503340411826
aF29.627422280865922
aF27.84896745589264
aF40.675984626338035
aF42.54815043855726
aF50.7274731915189
aF48.02131063963992
aF25.980940395201856
aF56.38223655999273
aF37.776109007008834
aF39.27097886300922
aF45.31139637663688
aF53.07929761240459
aF59.307574716010976
aF62.89087033967238
aF72.42440449364993
aF79.62912087912088
aF26.106441318357984
aF65.8742273047701
aF27.472485129731332
aF55.48417916315783
aF60.982075982728986
aF81.70724488497441
aF56.32324806876136
aF22.959348645289985
aF27.66962979121788
aF42.793359212933126
aF25.298410773821114
aF80.04493766470502
aF60.280195011120284
aF37.00370269912306
aF66.73626464068167
aF48.06051207934383
aF71.41297635971728
aF34.43241043888659
aF31.83741103186427
aF77.08180881204999
aF59.57127773442126
aF58.80335698203035
aF67.33731518537252
aF78.78169347381613
aF84.23627095426833
aF50.06831295404945
aF50.71881213215782
aF67.66773761763372
aF73.71747959076865
aF50.25327718876106
aF121.25859881119351
aF68.5091424138403
aF77.86948607108994
aF60.504056207108846
aF73.91690024464931
aF65.334501046076
aF78.74762116417006
aF85.36540490615342
aF76.12768118484357
aF74.38195595388612
aF37.14274294601816
aF30.046291479775405
aF77.6310443210098
aF75.89232385332531
aF48.128821773037906
aF50.61535340293709
aF23.159906964419672
aF75.26486438653805
aF46.96851596391687
aF76.06231123682855
aF84.73075747269297
aF81.56604663437744
aF96.86926635814743
aF21.835031550061125
aF92.52199672673824
aF89.23785924660291
aF44.24414603466368
aF96.51992025280984
aF69.60378356483233
aF96.91595925652602
aF95.52734139465728
aF41.30505495042389
aF27.87514138478276
aF50.86417283034757
aF95.43868405182273
aF82.99274055826476
aF110.2501811766628
aF95.98000908179382
aF56.532877938724255
aF-10.266641511541039
aF113.2321962258823
aF96.66608111513537
aF88.65211023824904
aF35.91023941443738
aF30.63275434243176
aF98.56289126966395
aF120.96124228521539
aF95.30895362952599
aF98.01584271807597
aF119.01109970018008
aF98.37181277222804
aF51.70485632944328
aF106.10544416415208
aF154.09382959116385
aF103.3041389718059
aF78.45894321602825
aF95.88055292360166
aF81.83548046828162
aF63.55405061650774
aF75.89221533565524
aF98.82340388813225
aF38.741781995855824
aF29.192155319308124
aF53.97502518962546
aF57.32780583536568
aF51.597677040081045
aF36.95574821285895
aF29.68554830947455
aF27.285360074198984
aF26.661104789207013
aF42.56927621808937
aF36.94618830146133
aF38.34223446814438
aF61.23419779060178
aF72.60085067209619
aF93.39873652024049
aF87.80804713446848
aF65.66677936463572
aF92.56213065995519
aF100.46425924306111
aF92.61969739605257
aF61.171837555143924
aF92.6586835305049
aF71.72775493691196
aF88.29253402996827
aF59.64600409771528
aF17.64659788428889
aF60.48048020086996
aF91.59698934529364
aF88.14506285765606
aF95.66010853318214
aF90.99313067055002
aF93.67058739707423
aF91.21373930275522
aF27.44750998323179
aF66.63529430168037
aF87.01108493859006
aF95.29416548537685
aF72.9711280878752
aF95.98827757337212
aF77.97221544185106
aF87.14971618005204
aF85.91450693574996
aF77.9560988442486
aF95.24787735668814
aF41.52753711785506
aF77.69947559876535
aF36.964255961637676
aF94.44991148906105
aF25.12953731514311
aF92.14235196002377
aF26.330923827676273
aF90.13087474432506
aF92.42065563301881
aF95.24063156415968
aF93.24441858286603
aF91.2496538690052
aF92.30891638993664
aF28.813566710488786
aF91.38741532366139
aF55.36156458411302
aF89.90723871088744
aF38.574934368767245
aF92.55912555608553
aF91.98343447725814
aF94.96556933183531
aF94.81582532791028
aF90.41678912026306
aF95.39821191200443
aF74.43619681116564
aF92.27707385320758
aF48.19403072934594
aF87.72331953473393
aF91.81530770808513
aF92.49495017294215
aF93.15649107505811
aF53.342676837300495
aF93.68507187379286
aF91.27019941712395
aF97.65524787581585
aF22.7312273694825
aF71.62571629310452
aF95.9313772801853
aF75.77505728888828
aF82.59002053107672
aF23.137099285721465
aF80.77351584060833
aF51.54312739287177
aF21.37778703967526
aF75.99410322957235
aF70.40894117721757
aF66.22355650214888
aF95.66546356868938
aF92.13666597739179
aF96.08976443008159
aF36.05204673130886
aF87.75552674270548
aF44.08877860490764
aF30.651673148829975
aF79.05814416567105
aF95.59695572255943
aF59.78807555203151
aF32.01831219373952
aF86.29222248449851
aF91.65515744665274
aF46.459338776826044
aF41.93718140106145
aF50.619267384214986
aF91.5515094606453
aF36.321105730751825
aF87.18243183756913
aF83.0099686705878
aF96.84079638353
aF44.193377172821826
aF74.59742835826216
aF20.14394674983735
aF93.97953884075413
aF85.59901714546335
aF88.34478393513784
aF44.86737627741952
aF77.81861319212763
aF110.10856318492509
aF57.62202362318029
aF97.67281823570188
aF36.62106834598449
aF36.40786468287372
aF29.945376961200836
aF41.04360232247234
aF83.68368771555791
aF46.34358907272713
aF39.2903557338461
aF91.35388257403713
aF69.32559135032879
aF45.47931205369818
aF28.174940912279048
aF73.4105947043997
aF92.44852025559221
aF81.81330871248306
aF81.61975153164117
aF77.05465759034044
aF44.93195482593572
aF65.28371251168235
aF72.94904958097288
aF86.07653244448855
aF85.82130931593298
aF106.65140465748279
aF68.40949158468757
aF85.86715936029418
aF92.01978099223479
aF65.48366465417158
aF82.34288061382634
aF41.84897862176659
aF63.03619979341542
aF98.50231195433064
aF98.19091639868195
aF96.53442322649018
aF92.39381294473719
aF98.40469204563739
aF83.30576167756949
aF62.21266147613343
aF98.66427306949208
aF108.67400968907131
aF50.29900536405249
aF106.14019549837437
aF89.25345254471405
aF53.53199881485872
aF38.90930764587107
aF45.07651272733142
aF92.52712383132085
aF35.268090950034335
aF93.40014823885791
aF70.49982275788729
aF86.80552861624074
aF87.14207797290841
aF90.83878045039499
aF53.64860484372193
aF92.93608751124182
aF100.56375032878577
aF94.5196898019139
aF84.97438098692906
aF82.11167979619418
aF98.59728744513868
aF103.00482058421059
aF90.88998905095791
aF96.33065804667667
aF91.4181382439669
aF28.88020168586369
aF82.52801053582414
aF93.78457575151513
aF98.31717062877412
aF91.85587730033795
aF55.397482223941076
aF101.24208637726491
aF93.66583440475108
aF94.55664186681058
aF25.226352351978612
aF106.98551655883904
aF77.6399202212697
aF98.13779590350339
aF110.24837556380277
aF98.6328555228241
aF96.71777440062333
aF50.51575403452952
aF43.839620897403975
aF49.60703655299868
aF87.48369213161695
aF85.07535045581787
aF98.51674838550616
aF49.123803226432656
aF89.22654831035277
aF95.17152145335507
aF98.63834204606623
aF98.18390279261178
aF80.00984373259355
aF69.81011975401879
aF97.69165469505029
aF59.304423768950606
aF94.37181486029726
aF96.60814236636944
aF44.54679372529263
aF82.08086351715701
aF50.325721207770655
aF78.54182826244285
aF93.70440455347395
aF56.72432807582975
aF69.67993339089739
aF97.71329410859666
aF25.46754490105983
aF96.67320930761791
aF105.8037791773095
aF92.67692754026044
aF56.434977300431676
aF48.16451223011909
aF82.69168282283142
aF60.305794108793364
aF38.90620895476523
aF110.65596765846969
aF98.53770088706183
aF59.889606721963794
aF98.09070114304443
aF87.57304959066899
aF97.52209715192265
aF95.71614787825486
aF94.24232408058387
aF93.92608000738359
aF67.24490937407384
aF95.99056056186785
aF69.60260635080189
aF61.0824272501692
aF62.81317712388261
aF50.21114392310452
aF96.98686505497479
aF23.952136909535398
aF96.61135810553539
aF89.28350465437398
aF92.24629084664697
aF85.55497736117073
aF87.91966591088243
aF97.51143018499944
aF51.38198005657081
aF82.22663209669693
aF98.09494480418891
aF68.26000640263139
aF83.6916200231627
aF82.01691458741473
aF86.18794386098075
aF51.567087115908535
aF97.26238818763878
aF83.5363505347863
aF92.78143066397823
aF93.44870739084423
aF92.38420716290183
aF95.82260072716267
aF97.53875090937868
aF87.62568685843243
aF87.027207911593
aF58.652651696129965
aF94.80887507120718
aF96.97365772554133
aF63.28908353602966
aF76.49702104427864
aF76.93352856844555
aF71.4613549163634
aF64.25680330316435
aF66.96391593271233
aF60.13083690503046
aF92.20089330438307
aF76.31686338542048
aF73.63790929398196
aF41.02581156788007
aF73.58161891192604
aF63.44688989241638
aF95.64014563092105
aF66.83682306711292
aF98.5370207854636
aF15.871424749996752
aF98.95373109680874
aF97.60873296483611
aF69.73836736748632
aF52.305729820685194
aF79.59448201944983
aF98.03151834373844
aF74.62777779817053
aF36.06046171570365
aF75.28544944706607
aF38.34037273639194
aF75.5557597001964
aF51.76127107033702
aF64.03211712542853
aF48.42529844165707
aF39.22635953242249
aF43.994933529824294
aF69.8113053199902
aF50.8329519468688
aF95.10073932761115
aF39.605392442586634
aF91.51889122573768
aF74.61877249045443
aF42.92809452005711
aF50.011460590966706
aF67.69652074680539
aF92.92163253121201
aF62.96601070979745
aF78.69104914662357
aF105.30119814075911
aF61.19203440086294
aF87.94598704490667
aF96.79247873066831
aF43.807803876129455
aF79.12154741081235
aF93.29488196135661
aF66.7745884063487
aF8.51516849435684
aF25.051072259508985
aF95.39291173400271
aF22.089363971084403
aF90.00427693267153
aF64.84515319434576
aF14.337114339486043
aF52.74504161593664
aF52.54573535520301
aF76.97184364088422
aF80.71465839111409
aF91.2809089895666
aF97.95961806763819
aF25.509545939653464
aF82.4179796711559
aF55.37277445724737
aF44.156791233059074
aF59.457145694685806
aF63.110094520501875
aF34.485956055536285
aF7.947870197892538
aF-4.059426899447509
aF43.617367055211616
aF62.946516800356385
aF45.00370547962365
aF92.90724783900963
aF33.13408529521061
aF54.22360769134964
aF57.797557234106904
aF91.85097141344934
aF78.16918317169493
aF80.41803224767206
aF82.192184591041
aF31.32885767312718
aF62.76744816709443
aF50.04876283423681
aF70.60415859459371
aF49.516818521734564
aF51.92834867144792
aF83.21172386784954
aF18.725014727130006
aF59.9787566337356
aF56.423466058010774
aF38.3273475251404
aF96.33734751600755
aF27.407898614795172
aF72.29637711888122
aF87.19258535941718
aF88.30781213334599
aF45.98569455154091
aF56.09703539245137
aF74.11981443019033
aF91.68717529712139
aF98.23535709707798
aF60.730036663510134
aF13.204075559276092
aF94.51150204234712
aF83.88510976658623
aF43.68366704641811
aF21.052624977806243
aF77.7591395350971
aF25.09806176822895
aF48.88591766288566
aF38.85077856373065
aF50.91922977397459
aF40.64943545418927
aF39.44884391323831
aF49.914891344050844
aF57.4441090720444
aF48.58990490547892
aF23.004080486351732
aF87.82417651473314
aF33.15394880762328
aF84.10023932929069
aF72.63960810891221
aF56.62408167016463
aF23.70393346199798
aF69.66551908946713
aF50.68842368585629
aF108.08509446336829
aF35.753491678501675
aF45.24591787143922
aF45.54703252879169
aF105.8890462538983
aF68.23087619008905
aF50.012411294343046
aF32.53164819192121
aF58.35701962091575
aF45.303541064763024
aF31.86087474842862
aF73.80153290634163
aF94.1479141960322
aF96.79117373959694
aF53.636640318387755
aF82.5580408355587
aF97.48917035399964
aF57.10795119124346
aF96.30248783474589
aF90.78578134452182
aF83.32208417847505
aF95.27103097640158
aF17.0815041038366
aF69.08171788819354
aF50.903187271523606
aF62.00963387094216
aF76.36159147915002
aF66.56590218475677
aF53.316454610181175
aF68.50433552040482
aF96.06360696255268
aF98.74150669255766
aF45.26620722862371
aF51.299983826359025
aF38.1582814291667
aF70.95795677464345
aF57.35805493048149
aF58.52741165100221
aF61.412776953910765
aF58.57219387531068
aF77.13090567425074
aF55.06959103384733
aF96.00764545276733
aF69.14407607107098
aF62.5469968174026
aF35.69832536171947
aF53.44720966544718
aF38.92441677670879
aF60.11781009825036
aF28.517376367315705
aF43.72081434291874
aF52.0797784852274
aF43.193205015869225
aF41.669857534012145
aF45.325260478061836
aF44.4897481504691
aF41.4391617111167
aF48.61559847146502
aF55.525248453854985
aF40.04734627844352
aF62.00046189762302
aF49.191700543793885
aF79.74256988872446
aF14.001851488139774
aF35.237235469472274
aF51.43811205814772
aF82.28207754277196
aF89.57295347905801
aF23.417974024385895
aF38.33701811289825
aF29.10077222678553
aF66.70664014259931
aF23.098896828006815
aF23.278720333651567
aF60.361900978174454
aF98.73319335451943
aF19.780357778945028
aF4.325453833093897
aF49.637691824752736
aF69.50264596733386
aF49.75671866441286
aF62.763786545060185
aF64.66144439578976
aF57.985967985699624
aF82.67434057082254
aF91.787003781391
aF23.980034281577062
aF37.57216566067234
aF78.99378610004797
aF38.86249713494175
aF30.35851064506735
aF65.03665191837236
aF32.36895549157841
aF56.80847932189805
aF35.12278036483676
aF79.10753272716113
aF23.886975128728473
aF81.18721598805183
aF36.73477060573834
aF8.516620438474142
aF48.455134048051065
aF63.264520512790085
aF64.8065844112631
aF46.0166866354311
aF66.2341902982467
aF39.59961683554724
aF65.33996944148474
aF37.381797864600685
aF64.74087176446457
aF60.446097065471086
aF97.11255092291688
aF96.28135584191905
aF89.53920444360939
aF47.61394519459036
aF91.85446677383439
aF92.60735944652622
aF87.05898524628539
aF86.30803549210417
aF97.43527045372137
aF91.91197239897087
aF92.70906365036282
aF84.63785757760195
aF96.12219561593928
aF65.09697802940644
aF96.56706929434202
aF58.10125671167856
aF63.65196952392956
aF79.09672654143749
aF72.7099031842981
aF95.61978735700279
aF57.51919417362379
aF42.969637073873756
aF82.17328664697087
aF51.18933266985175
aF88.45014304279398
aF72.84804752137833
aF124.51588643033244
aF92.89086173141213
aF70.32281819377022
aF112.40029909236654
aF88.43719882934758
aF85.12690030320516
aF89.05653579141745
aF75.85605965703348
aF90.39262064728958
aF89.77350440211258
aF72.59160048265343
aF91.07437454619523
aF93.20589313792063
aF38.33515551253237
aF39.38401419986171
aF66.49510870773933
aF84.79564538284296
aF79.41616406704674
aF78.7485691677742
aF59.420925349601774
aF48.88264316643708
aF89.5300400976706
aF47.32588262279076
aF65.27760383056375
aF58.384300600662684
aF59.520166796364556
aF89.523036513843
aF45.017517616898104
aF91.27585727183424
aF72.72153995267396
aF54.01815067199053
aF47.84289302489954
aF84.48119427660454
aF66.4918391375878
aF97.80600510182747
aF92.88168407275107
aF70.09975076064771
aF44.28148685020413
aF69.27466848196836
aF50.95331741269532
aF56.71507314564819
aF67.54840336719339
aF63.78690838855689
aF63.94906716460035
aF62.53252694370777
aF71.16034595014177
aF63.57365137441532
aF82.15415671715014
aF74.56485620680883
aF82.34072110037144
aF7.933263680292541
aF75.67608087261755
aF72.5123722916118
aF52.22109028243255
aF67.45254603973802
aF77.8760256458657
aF47.122697653775546
aF72.69699172822247
aF78.90481901118483
aF83.64949578022583
aF64.75445059724765
aF87.53912375168065
aF60.23767795479956
aF20.36218744035121
aF26.55588854497195
aF57.360234683957216
aF47.84024965645541
aF66.89482810897341
aF84.99874991025716
aF51.155963925949905
aF68.72659353588858
aF77.76765141540487
aF62.291942403692666
aF72.42362510049264
aF75.14992473455038
aF82.38888122383275
aF56.313121981364965
aF76.38245653551147
aF93.39957784873344
aF61.66891418442141
aF56.656469489308705
aF47.48294585037307
aF64.60175606784946
aF86.4534034844056
aF79.31222106698405
aF82.86948254520172
aF65.36841918322334
aF21.165501165501166
aF68.77092921542696
aF50.30582422499601
aF68.49607529247075
aF54.21685363404234
aF69.82724622366473
aF75.54828722660542
aF26.94478036914155
aF1.5507021900446638
aF47.84341869153542
aF56.149643862540096
aF88.99454935186291
aF60.48900528537243
aF80.22160961236318
aF67.93242151391321
aF58.74226022249333
aF54.13995226024728
aF104.88215233765682
aF56.58114675409662
aF73.67883842427798
aF60.37107982314574
aF71.11608088238559
aF54.62345306508535
aF66.9023151723971
aF14.336514709802014
aF60.370511055490006
aF61.57369296903775
aF15.424593327819139
aF74.76537755451997
aF65.91120231481878
aF86.2583363699989
aF57.68454407262743
aF55.11045981668102
aF33.56890800877477
aF49.530131304324854
aF39.28784216206664
aF57.55944381577916
aF66.43186459129163
aF25.506611728590954
aF50.59149750366229
aF58.20874669771105
aF48.532697942784225
aF73.16130782559992
aF70.18593860297327
aF29.08025980051032
aF59.46106588704325
aF58.28442921201155
aF91.18233661640684
aF47.35395235705492
aF53.82488236354341
aF49.75224348213062
aF47.74438536831612
aF56.29623065106937
aF59.6382994885299
aF77.39050715691428
aF23.833137220233994
aF38.987177615844956
aF56.55090717255386
aF58.93330882578196
aF62.51950806139633
aF47.407775951083046
aF93.99105230827502
aF59.998528598147665
aF22.455207351665898
aF35.53273005125745
aF98.04903856527548
aF51.720360424462385
aF33.39394055731862
aF81.1907042212645
aF22.542366036989694
aF35.2665441295492
aF43.78661620271593
aF48.9870743770334
aF82.06175419248424
aF30.740981139642116
aF93.93553275373876
aF75.68339942393465
aF57.299760293748044
aF25.09384742635363
aF35.54395714483872
aF12.85828466187108
aF53.577492704090396
aF45.421231173487165
aF35.31111007069619
aF83.66442567238548
aF31.724210102306618
aF71.82595842188373
aF58.11691184926876
aF89.32387611123052
aF80.74482637270808
aF29.919776786366906
aF73.2326495410374
aF56.48865432313344
aF38.65680356896125
aF64.88089914568884
aF56.78375982133355
aF44.15304044136562
aF58.744893849605894
aF44.130961890270136
aF55.412881510399004
aF63.85760791622179
aF37.28188820399508
aF21.392923687877705
aF62.14925927781757
aF26.70335198348781
aF35.89477387030224
aF84.38834009909804
aF21.380049187145246
aF22.183536066910754
aF63.99236767486795
aF21.418123254496482
aF24.28885263252509
aF23.86304981180986
aF87.21132194586339
aF75.45511757994227
aF23.715513806851675
aF53.41692713766493
aF55.47267836562806
aF23.984393711204703
aF53.63892385381666
aF23.329646694727035
aF58.62882231719725
aF51.415660065234015
aF42.6756297385165
aF67.30338476455351
aF51.80796507621635
aF55.37616136439201
aF41.72324522238995
aF36.0180469875306
aF62.42103763237047
aF40.904098450287364
aF22.891190602317824
aF46.42988975833551
aF43.62154815575746
aF21.424924968132355
aF30.924231567155534
aF77.4231246811892
aF63.22929056500371
aF33.28081987888631
aF44.6856906534326
aF45.810691778433714
aF14.908694585276471
aF40.0517529620829
aF82.4329245001966
aF88.05462074748652
aF62.60271461423757
aF39.14683654383879
aF70.26998873471936
aF51.95214228069004
aF20.0915126390771
aF49.199276371951896
aF43.966325818783474
aF63.1732477100267
aF66.10542139457453
aF64.79924072868513
aF22.45466692116816
aF54.421294958937196
aF97.42063431205742
aF67.08159080077453
aF65.718673828292
aF41.127893291101856
aF76.12161049313937
aF46.20579158519471
aF89.91009348423597
aF75.1030057280185
aF35.9147999240061
aF64.11338973038566
aF63.5873020672667
aF21.781438354647165
aF31.715514147041837
aF68.18651460691004
aF69.36692228694093
aF83.63729197869284
aF48.867480128853174
aF84.16745101394713
aF22.149150936950818
aF30.185131124410063
aF30.19243949722259
aF53.82133995037221
aF71.24724692989648
aF50.672180400360304
aF79.7452573441127
aF68.26975626421424
aF68.50330729768001
aF90.35579805744081
aF73.01085036856273
aF25.510481138182676
aF29.989557327261814
aF21.825628703783917
aF62.24319792139459
aF96.92501655374448
aF77.51258547027085
aF78.43382002408066
aF70.96829901737664
aF88.64361378458669
aF59.632405674080275
aF65.33928280337511
aF41.865926808776706
aF82.06909561059427
aF88.00844863341237
aF75.47582591567921
aF48.26205682968357
aF77.33664896720798
aF48.430631018485414
aF52.88737264919502
aF78.09528046006037
aF41.68912149102537
aF74.93170096822848
aF79.43407473222771
aF65.41511968506876
aF66.59004832179704
aF40.815144311502266
aF90.76179180899396
aF86.2398491353795
aF86.88432931929394
aF44.71915772470558
aF91.25606533991018
aF85.2916820398277
aF52.885259444365964
aF82.71173475510258
aF48.32255462487019
aF91.96662331263289
aF57.39286908470162
aF52.52965538363965
aF91.52369797317192
aF59.48685765037617
aF73.48237064799977
aF88.58578571980469
aF71.38577081838817
aF50.39310873149366
aF63.44164560694413
aF94.06183787975522
aF68.71228552373063
aF78.0761082256446
aF64.54645784547111
aF48.448334198266494
aF87.98462637877833
aF60.3602657123784
aF27.467355922009446
aF53.08397434982874
aF82.21930041588575
aF82.83040067438134
aF67.19806776074086
aF75.21043836558604
aF61.43578396774464
aF85.60493264209565
aF61.67216222112566
aF65.09526064654793
aF79.99447726333213
aF90.16303274178777
aF82.00709590353054
aF52.08937087073287
aF67.33618963812938
aF21.998530497833503
aF87.87301377667633
aF77.6273311672293
aF77.36131242284608
aF65.9550372754083
aF68.59408400025731
aF72.57555446723845
aF62.00255779217867
aF61.166676247321426
aF47.45159620557905
aF58.804777210661385
aF51.75177536938938
aF52.476601934677404
aF55.1751569113998
aF40.55733550595643
aF69.28670343702477
aF41.148346323481306
aF46.8663600567126
aF58.630799145747126
aF69.50548834208274
aF60.63008686997502
aF72.92809985625364
aF62.13201936162089
aF52.11947642338135
aF54.81537098249395
aF73.48772471483525
aF44.36535524982747
aF78.35432093941111
aF85.09050371479215
aF49.006168224113466
aF64.92506632717217
aF87.7755290795785
aF52.995874988166946
aF69.24283642168797
aF61.059811452418714
aF62.11728915714907
aF74.6303729270009
aF21.33244364743416
aF38.74927413589853
aF67.38346521081004
aF76.95927919013744
aF65.21326200165693
aF56.21751628313631
aF58.542214285537575
aF68.4830321967058
aF43.17179829777653
aF38.56709967689799
aF49.67352345332709
aF51.29518980022797
aF65.32493924302045
aF61.23094726450894
aF71.27539920429896
aF87.30678454540535
aF56.99547318098617
aF50.89046362568209
aF71.15143257199989
aF64.71876403648821
aF50.582943325899635
aF66.95068721819312
aF67.4917814732114
aF73.30371404747794
aF56.77423907204575
aF60.36443131579127
aF27.490597502303302
aF53.540792105518314
aF59.86953199601758
aF65.0541031173901
aF76.53968373706991
aF84.49990001229266
aF77.04158708555084
aF68.19919065105123
aF51.09813641493322
aF67.12353742034487
aF59.561768492029884
aF64.88525431677955
aF39.742058562269136
aF84.40441114855669
aF66.22631239004198
aF73.86052158868068
aF67.06540685069739
aF68.36062908449591
aF60.557842438830406
aF61.928353690504764
aF66.33610435525988
aF66.89858322286166
aF72.3776758225282
aF65.82308768951528
aF52.64676762893406
aF73.03347633330215
aF63.931329078202396
aF39.901684593626676
aF61.40266232925878
aF57.146527002524806
aF46.44755779766928
aF57.458515716774954
aF45.64377839435066
aF84.79083997473703
aF85.28225817508317
aF41.00485144095832
aF90.25194774049517
aF63.703547504389036
aF50.647994372911825
aF51.28320269433971
aF42.54407034734159
aF60.63275434243177
aF49.56736667388323
aF66.78322709641219
aF42.195332641514575
aF91.2120040665891
aF62.722936537281335
aF66.49464471235875
aF52.20547543545319
aF89.80388600550663
aF70.57555650355678
aF31.07125904689675
aF38.67863979069412
aF68.550287912705
aF55.04753775052908
aF56.57831244806914
aF64.29131140506354
aF40.58411702149843
aF38.53377510017356
aF42.93189376097101
aF82.37631720501983
aF36.44341210116059
aF50.2942030998757
aF88.56993516396338
aF77.0052154564935
aF33.67792889186404
aF55.394710411727274
aF83.67690980056165
aF39.71917111148797
aF67.51064459733814
aF61.217340647287024
aF87.93302260962047
aF70.31360021307489
aF68.37028509657064
aF85.8014371947524
aF39.262562034739446
aF96.64973822797573
aF83.29993043293132
aF83.53840061921662
aF48.09756575488372
aF37.517418157747635
aF67.45894622314432
aF68.93856956893359
aF53.622835295433525
aF21.207095231102738
aF40.89236920852261
aF86.97937735888401
aF41.02214441845892
aF53.75371844510078
aF67.50274978172703
aF85.68571481611463
aF66.59916339969007
aF38.47931621176402
aF74.19099836131053
aF38.293186094544325
aF65.77408057169718
aF35.91467607402314
aF70.34038793358371
aF86.42016112535747
aF93.14623643270713
aF74.7798161037978
aF19.002831250350788
aF92.14889697600303
aF98.429247050858
aF88.72293568299227
aF73.26638052444505
aF88.58042085488778
aF62.0193369097652
aF59.462998800859594
aF95.95651774113216
aF91.88605318890316
aF59.60105393475275
aF66.14999417724468
aF52.708534455360244
aF46.34107317292254
aF88.70421380927448
aF67.37287832407767
aF72.22852498126684
aF79.13729616685748
aF71.65697125517116
aF93.05210918114143
aF53.82133995037221
aF86.30106856705481
aF92.80212721905556
aF67.54582030820202
aF91.03443032381605
aF76.89035428307403
aF64.16614757285961
aF58.57840054479035
aF54.305531947370284
aF35.14527520736238
aF54.00240716757091
aF56.878088078403174
aF39.496812325951325
aF54.08679092850136
aF99.13838806016071
aF36.876989272686345
aF70.08722159344623
aF28.379473649239294
aF56.94286697642403
aF92.10407738437804
aF49.21829286591152
aF39.96754396119704
aF55.903041512265446
aF31.411124534890163
aF54.743230690446126
aF45.78463739051814
aF31.177164906683114
aF42.72575184423992
aF90.72239346767753
aF43.516561097206264
aF24.630829999493592
aF78.3356074373263
aF71.86720790669472
aF49.056610579544554
aF48.9688485939938
aF21.415761682539756
aF77.02560281212618
aF61.1563218474981
aF44.544535974025464
aF29.181517642377386
aF62.48007575551
aF50.84636810912131
aF88.91886496946523
aF40.81107202695292
aF43.6236904526764
aF35.795095194170074
aF72.64299640451715
aF54.3529541099978
aF71.99856121108493
aF32.46024513006741
aF76.56247865925286
aF65.48574539615356
aF58.868045382090855
aF90.05462170832611
aF40.981228729686
aF27.76612619962156
aF92.5021558171867
aF46.40683474023753
aF41.874716057816485
aF55.083631418832965
aF69.49833729261442
aF74.2516927205678
aF75.95671263183294
aF89.83308795915498
aF56.32887236560239
aF66.43828219656567
aF24.55637899734397
aF38.97226961593286
aF23.343672456575682
aF56.07312757866299
aF16.72730993648853
aF24.082093330124405
aF48.54372086329681
aF51.53979750246911
aF25.764082307861106
aF66.96664146048428
aF25.741519662676755
aF31.534813758129552
aF91.41630082076732
aF60.994681620486546
aF62.954489450056776
aF15.295859210163897
aF69.40347519430007
aF76.28025559030769
aF22.57476265636797
aF38.28314161124287
aF85.99421900782119
aF41.5146403713475
aF18.88791249458614
aF76.02349163279462
aF22.875464990757465
aF70.55407570408966
aF72.2253531246415
aF89.24614086864298
aF21.237613593413638
aF43.48278497234854
aF52.552121379991306
aF63.81527445343942
aF97.17420625731192
aF15.585636742354735
aF82.90395795168672
aF43.863973534778225
aF67.42107091740363
aF48.491292622009034
aF89.01121353434282
aF68.56390102559727
aF85.82130931593298
aF86.31577829647745
aF84.92436868219247
aF44.08349275457924
aF60.16793643911528
aF41.80429116014747
aF41.529904835216875
aF74.61527217684335
aF23.888022770284913
aF78.02608704692327
aF74.22003100540904
aF79.5887945307585
aF78.25858930087011
aF70.71194762684125
aF53.78452701599057
aF61.321348891896356
aF72.66739083430289
aF62.773297282178
aF67.06042274568708
aF23.385877733418234
aF70.68441572585658
aF72.94814034155223
aF63.99411742212459
aF79.79755271138973
aF35.03495374802064
aF75.00772737493423
aF43.737733579885074
aF14.586670052105813
aF60.37626337849532
aF70.7316520101893
aF52.94859249283164
aF81.6699536755315
aF78.05657791378904
aF57.22389520057997
aF77.20968853066303
aF88.6672522617914
aF52.20326903258712
aF40.48922882390002
aF85.55472666927531
aF56.93206059165353
aF82.0965192155624
aF77.79786462537729
aF34.069473844644904
aF38.38606699114072
aF69.81173245058767
aF53.94887847721041
aF40.91667325126349
aF49.581183644659184
aF71.5012227687351
aF47.63416224474425
aF52.23222652288894
aF18.132276049162407
aF54.71953882254695
aF97.94025634527426
aF73.51458761754188
aF68.46544310537446
aF51.13118767990606
aF20.21654007046581
aF53.26745834810352
aF64.89579365859618
aF71.17840021825836
aF42.17171861960466
aF34.46431233599219
aF64.17073698578979
aF49.6033312826191
aF36.426246815241115
aF48.80693582373504
aF52.30350384039669
aF61.656764496337274
aF63.48699221099136
aF38.018156559085135
aF41.305146466436796
aF53.13304530713223
aF23.701620959685474
aF55.8690501839285
aF59.34553671432739
aF52.01540957952756
aF58.2034630228656
aF87.2241598742148
aF63.23959673238727
aF64.16840328130651
aF63.07184718231108
aF71.73184731923908
aF57.68618899836545
aF38.14871108277911
aF50.61396282800922
aF61.664870480616294
aF62.89839193065001
aF58.46569952371514
aF61.66032400993619
aF53.76823840759944
aF56.68367361052657
aF56.20890391117784
aF66.25647973585914
aF55.64222772495481
aF65.25726034064587
aF58.642299588888704
aF55.8182946503636
aF64.80733825643671
aF49.84734059769123
aF58.13222925211997
aF64.87878949872142
aF64.56359233680769
aF41.639594295737055
aF81.39987643032141
aF67.91646942750509
aF64.92161187607108
aF58.491121296061785
aF53.836545735986306
aF53.79819265953114
aF60.26002386182934
aF110.54240707968845
aF85.4744671256644
aF78.2535671143302
aF81.7434102131399
aF65.51839248617051
aF57.11438413966694
aF40.38470683631974
aF73.9534901067644
aF54.03259570831347
aF45.85066228637332
aF57.01550302709087
aF71.57116040754066
aF75.68646859743897
aF57.41104936119599
aF74.4341144870915
aF49.535337601214835
aF68.56779271910334
aF76.91107368632836
aF98.20983835798809
aF60.56798258084712
aF73.14420592366538
aF68.2225173045001
aF35.22224280907845
aF59.90349732722321
aF62.03437276407147
aF59.62203083111285
aF73.40513588262074
aF98.61121511934152
aF71.77621818949694
aF87.60587195996327
aF44.9568109249088
aF46.22583375321432
aF63.090638741276116
aF35.10024026153059
aF63.09576172020881
aF68.35248124402993
aF57.617802626155516
aF54.49198325093256
aF82.75535198090901
aF34.52587011345773
aF59.10755317401925
aF66.61538986470421
aF61.69333838358358
aF80.71549875268516
aF52.88657609016962
aF65.97448476794288
aF46.16186013390566
aF48.209337711646214
aF39.03810850721289
aF73.83686295535104
aF60.91486854257705
aF74.42463354965159
aF77.97238582120045
aF77.23427285685007
aF68.06100855731546
aF55.716197011701986
aF93.87568146512719
aF57.95340447250087
aF63.91652812923973
aF75.81653577739189
aF57.885290295560914
aF85.1804922274399
aF66.28903142049948
aF46.41350486467587
aF67.00751667987879
aF66.8041257486385
aF79.244782555978
aF70.62285074719426
aF74.158347773098
aF52.1583074777371
aF93.30102993450913
aF52.23601896083304
aF72.07247452911945
aF72.36966485693142
aF91.00784671861763
aF66.45655012280324
aF78.16365819715962
aF44.2452968740503
aF77.71800904158502
aF111.05568048596705
aF66.30607468963316
aF95.2922238947332
aF42.07134537879439
aF58.06718923275945
aF89.70112689857913
aF84.03018107235282
aF96.32088207951419
aF94.41107846203433
aF17.166250218253175
aF92.42437669857024
aF22.938901273784023
aF92.53334011637831
aF34.32986468292145
aF46.85475264518534
aF97.12039631719449
aF69.26041935031888
aF50.08540001833563
aF89.18505264783873
aF73.39751485767134
aF92.31378134082247
aF46.03816286871683
aF95.52904664561639
aF97.97616237742709
aF41.12849836884892
aF23.914347521639296
aF88.04343532545386
aF98.44016198854911
aF65.85969139257537
aF89.00334108360525
aF91.40429218874966
aF93.05210918114143
aF89.62562096404206
aF90.9742963305828
aF73.05381562637768
aF74.96874133887832
aF61.66363546414312
aF86.56447411497156
aF93.33602103218992
aF90.74028122415218
aF62.6614110805523
aF84.20215231454425
aF59.636789066446866
aF95.2768890096079
aF95.39339643035608
aF92.26250857413365
aF91.16929880376934
aF90.5920162284691
aF42.056412726387904
aF38.88235576173865
aF65.55875602816228
aF95.90879984883952
aF89.84375491689768
aF95.91399063449438
aF99.4732914527636
aF89.70095557034975
aF53.15211330535037
aF95.1630336205257
aF93.35337327187665
aF95.8422043585446
aF93.58839577950958
aF96.02103669725919
aF95.11912862998557
aF95.45976958820995
aF72.69104421722463
aF95.79085597393755
aF66.53807208269815
aF98.21747510475979
aF96.04268957248931
aF66.84650226199155
aF95.87098973295844
aF92.55439668242414
aF90.71278952462565
aF51.39136778366506
aF61.31911265859615
aF92.13010308678963
aF59.42424427986145
aF86.78839752822485
aF97.0050009763488
aF64.82985707255146
aF53.08787492416597
aF84.09025255426641
aF73.31932720399402
aF59.563937544957554
aF54.123363675495014
aF57.28649348996745
aF95.6770560649191
aF77.74221356679841
aF44.75309202131211
aF89.48620116153936
aF86.19910630850791
aF93.87819004895118
aF44.97514707638605
aF24.283467456123823
aF48.895241514505486
aF62.62223512464267
aF60.71670398533633
aF63.75021516642289
aF76.29044267822228
aF76.27672265699562
aF93.82571685065349
aF57.776962212112075
aF53.17106413197293
aF55.87829739489479
aF50.92838447842801
aF79.30027746013172
aF85.10875440607951
aF78.93326948313218
aF76.3801838919905
aF48.07678520066931
aF70.54165437540128
aF70.1121086310632
aF61.5562931691964
aF68.06658119933556
aF63.20682206575323
aF50.3833206939663
aF82.99703970529022
aF48.32569577364053
aF56.08681380459581
aF57.945642722317665
aF71.6176419490231
aF85.72519986387628
aF72.43761966118242
aF43.05211867810728
aF58.20302298762896
aF88.25933404777037
aF73.95920424509055
aF45.261532319227356
aF91.26256922307387
aF70.43525253587526
aF47.62539153073262
aF91.0925152437713
aF72.11771579021334
aF87.68224583348456
aF68.7947567396696
aF49.39111918153216
aF22.757716706292765
aF88.7878693944505
aF59.59352122682461
aF78.80951756585625
aF70.39934255680382
aF84.39928245466838
aF98.89100097889681
aF47.811271540207514
aF107.6819471973278
aF102.57048078862844
aF92.12082114624246
aF94.17485675160366
aF93.52038003970937
aF95.63387665618149
aF98.25127089129535
aF91.39737359001096
aF96.88147909248276
aF98.94247703653514
aF53.96253336682818
aF24.55074147607189
aF22.72825929853072
aF89.91211340616073
aF98.83267780078843
aF22.052952729469116
aF52.27524557763492
aF47.66677710323731
aF57.91734759555579
aF87.07799998654306
aF51.52006984438718
aF59.94437856035465
aF24.968724992315664
aF58.38278789044654
aF22.576269764208057
aF71.78779624450254
aF87.40987521665225
aF23.882907834864827
aF22.389036963313583
aF76.66346849631307
aF53.61903373828987
aF22.724304800580562
aF30.632040018966165
aF37.359140423656555
aF23.512111205936765
aF95.28888266095065
aF22.86990318650843
aF25.46691229085708
aF49.467054552264536
aF20.930488231241405
aF23.801975611281378
aF68.6465341231542
aF98.50049311120681
aF59.10353787040412
aF57.552964050593864
aF22.379440327896134
aF117.23497937094562
aF57.15471903823604
aF65.4672114753574
aF21.895571017381727
aF97.51940042370691
aF75.91545268540176
aF67.60786455065148
aF22.963855985767125
aF102.01048413598636
aF92.59090245454081
aF23.38397847465783
aF95.20362216024964
aF80.94473592467111
aF89.1394722118785
aF98.38943708791668
aF42.78742163086289
aF87.14415227445232
aF23.635447816589256
aF87.48783034346229
aF78.8121776434777
aF85.89478268522818
aF98.9448614883641
aF44.29518556693841
aF61.858530309590456
aF67.10133737020709
aF69.66121854684906
aF76.04593629061188
aF16.387085378604215
aF92.9452623980507
aF51.55410790951662
aF24.37428361487955
aF41.08308263580187
aF59.74452506180332
aF49.129812058967374
aF44.45513689346707
aF67.13853413175212
aF44.62573458550361
aF42.77928697189952
aF53.547486730516766
aF31.46859214513572
aF71.86281278003807
aF38.976489577317075
aF67.2236784468002
aF53.65054717971316
aF74.18141332849264
aF81.74783030273926
aF51.077357229618
aF57.814723069256
aF94.96679455286363
aF50.82582694552063
aF73.6329644844503
aF48.90474558272035
aF56.77270162130077
aF88.28370209252128
aF29.85162266725847
aF27.641352297765067
aF82.18491711542447
aF59.11713286713288
aF31.517843892958837
aF68.90008822760501
aF72.79221106386655
aF45.40387585678707
aF59.69273400013438
aF63.72161451986322
aF82.35777961584414
aF51.55654183440345
aF48.12826569004123
aF34.299342257451016
aF56.82641768033025
aF51.79814784890898
aF94.51037542706099
aF76.95530493816173
aF73.26699185964719
aF52.9047918930944
aF78.4965472480285
aF81.73121066592988
aF76.09060919075924
aF92.37429366306816
aF54.158977101286915
aF62.585985321480564
aF41.153693221402975
aF78.98554995235199
aF54.67422475148958
aF77.49114668211148
aF67.99057906908834
aF56.57539863691812
aF74.1499841355843
aF98.15246967372786
aF50.38270302293563
aF73.58506813410256
aF58.04972344803993
aF61.79095726514749
aF98.27494962235596
aF75.96447351598306
aF96.12424981502288
aF40.86840647798374
aF76.09794902133612
aF70.42107181917609
aF69.47453225891257
aF49.44974194281835
aF92.27650903419051
aF57.57198185802375
aF22.857869721264716
aF84.92568673650517
aF81.93800536974075
aF81.54532100491302
aF104.24426303896288
aF65.87496759379283
aF59.19919951333867
aF98.69924746566693
aF90.32817138602694
aF88.55762481483481
aF80.86300633221455
aF93.05210918114143
aF83.09496954658246
aF78.89209078365349
aF79.46980196315016
aF75.85094664678388
aF23.55577866765345
aF98.85519330982316
aF73.89038369513752
aF50.52979244949277
aF96.33750048122859
aF63.64159932025403
aF96.48854463360871
aF83.3808059565502
aF83.06135687579764
aF95.90184997013436
aF93.95372836898692
aF62.61217560029106
aF89.7518728300243
aF89.400129401978
aF69.01056697275874
aF97.48090186496769
aF88.09677374503326
aF68.51964262521447
aF72.11819361914507
aF63.62619173820441
aF28.51455410020449
aF93.58049411365094
aF23.898704443735156
aF68.26618476708356
aF70.91310563019024
aF82.85719478569138
aF96.43091123083052
aF76.06816472119353
aF99.98075422628021
aF92.9169832191042
aF62.34577621705891
aF91.89930233322313
aF61.2995805352473
aF68.91601934474605
aF73.93851434196338
aF41.00598386956899
aF64.17608453920182
aF90.30472730870116
aF69.29887807320779
aF66.27995528991963
aF68.01093433568968
aF52.00529413354059
aF75.05570883163291
aF93.471058383923
aF35.275365168429694
aF95.33713365097255
aF68.5614522495982
aF73.72185350582372
aF95.66384588028349
aF67.34012766723453
aF85.39060559749633
aF97.44413127248599
aF82.2333234595718
aF78.78144309833115
aF48.37785722570139
aF64.95329656165089
aF73.21989485134827
aF88.00378857439058
aF64.59453906071091
aF93.2005097592837
aF70.82049105393759
aF48.05834788669947
aF70.8822848640054
aF100.60101740002486
aF72.30967438046483
aF94.05554673521557
aF76.96229865968408
aF70.67962951086389
aF33.5877387250725
aF47.349695065988634
aF61.86824912587512
aF87.82527389169286
aF83.00065821630409
aF54.72678316878729
aF98.23416401646462
aF86.3906091850219
aF56.47593897667884
aF71.92794465444912
aF88.37108040190188
aF78.19580302407645
aF95.20604876273042
aF73.30371404747794
aF59.55632070751421
aF95.31154601107482
aF79.11314736256377
aF88.26370161342722
aF87.90907722414572
aF44.18281982042774
aF88.98842444299024
aF98.94004737547303
aF88.71495817978435
aF85.53640211580938
aF57.69135949598519
aF79.27898631259028
aF43.3498599835535
aF90.80533462033807
aF61.09602326493234
aF96.96313344175861
aF74.63624329532202
aF22.92149951719053
aF83.9265104735174
aF78.5434506017842
aF74.21699692497656
aF98.55233545228414
aF97.42415210568987
aF95.11997641029899
aF98.28238295632796
aF41.57552491252149
aF57.0538398082982
aF83.08510598530978
aF34.51862681352579
aF75.19866266928786
aF95.17235528233884
aF23.549524866629973
aF75.30138678740744
aF76.68455841036646
aF93.95072926014811
aF78.03179901533161
aF98.46088458748045
aF71.77130940802273
aF71.64188203686857
aF28.608193209791935
aF61.26982844015523
aF90.34787270048874
aF64.96553625585884
aF86.72277196083263
aF97.55777584233043
aF94.66390589608211
aF70.22795759693028
aF79.34429629483607
aF95.64562080691113
aF53.19991181124148
aF67.55578052789568
aF85.12934720159772
aF75.09204342709558
aF54.255770168730756
aF98.38709931295925
aF87.44993302753745
aF41.05035705512766
aF57.13427327662309
aF89.29889070722886
aF93.38857723362446
aF50.33591437217071
aF83.0489627901481
aF97.05524620634978
aF88.7991747288594
aF82.48668813251152
aF92.88253904821123
aF80.20209214482637
aF87.0906394591472
aF72.21973000532472
aF30.060945636080525
aF81.94467274145799
aF68.74748880766376
aF70.39748088889293
aF81.04332636802926
aF89.749678952715
aF91.51238738220304
aF82.43693704470832
aF77.36021544015236
aF93.110997951613
aF47.60701146564618
aF88.73404955234594
aF71.01488343837802
aF74.78761240973108
aF75.4096610415656
aF48.49123129990761
aF25.00172557906093
aF93.20907967571151
aF66.8378151212148
aF96.56155923771605
aF23.289471398544304
aF22.85025575365939
aF78.58039816144819
aF107.6231051408043
aF71.29352746574025
aF87.18368596846804
aF79.32227808288096
aF85.05347181917641
aF84.46228125705447
aF54.5918323734627
aF66.62534838251173
aF98.07516681024069
aF73.32284618532026
aF97.27101375067714
aF108.18239954819529
aF68.96883722950639
aF63.65353040989453
aF56.11405160762821
aF65.95446192708435
aF93.22724960873627
aF80.62928102743204
aF74.59777511869729
aF73.99759052484424
aF97.8032746241448
aF27.433043685275564
aF94.92392432741147
aF96.9915453715618
aF46.61688688799189
aF78.04720572188249
aF97.0294781750995
aF22.751249030302
aF59.69214674233694
aF36.82787541825526
aF67.3997535447285
aF46.22887631302778
aF52.21276758203753
aF63.986013986013994
aF95.24746563448383
aF55.56841276802308
aF48.22754208702476
aF79.1448111150626
aF50.8425833201482
aF69.55977979138724
aF54.684118505879034
aF61.14728916421144
aF73.38818936255967
aF30.405666212117822
aF52.064106031937094
aF82.98290030505112
aF45.80113823215261
aF54.639485640234824
aF78.78287209594998
aF47.391203286039996
aF96.71463069771414
aF46.871902856622725
aF51.188862853192404
aF83.43736908253038
aF90.5761215072774
aF43.44577636679155
aF74.7879932835283
aF54.86398131559422
aF53.17115236783261
aF52.65822997742193
aF78.48410263449009
aF69.28877688841543
aF56.624934205579365
aF37.3223349640538
aF58.25382314346662
aF54.65172061586789
aF88.96792033256669
aF105.69258861630033
aF21.667319807522016
aF57.59524662427548
aF54.77483598245358
aF43.53549760651277
aF64.51641215739332
aF92.38847737818156
aF50.37716490191251
aF42.94060843999372
aF34.383658210372005
aF55.224578597644374
aF51.96382555497007
aF30.263932614941844
aF84.842652490446
aF75.51298333365898
aF92.32326101534595
aF51.66413294918762
aF54.81552586484156
aF82.97150103361098
aF52.563852567129665
aF87.02391661008487
aF97.26974805653012
aF42.4111170032467
aF86.06521005683939
aF87.73882293945238
aF89.07048172540533
aF53.255819303309245
aF82.37350269158918
aF40.488095128423694
aF60.58498071364957
aF65.83279767741058
aF32.44767504585177
aF83.06210988547171
aF81.3720328129232
aF73.09111174701196
aF79.91922056438186
aF70.09315783123957
aF69.51649401226288
aF59.415595620871635
aF63.88867612178334
aF71.6272128248292
aF79.71131643999252
aF48.415305605965216
aF46.52668975855148
aF77.11781651523032
aF72.1998941120757
aF70.22943539072571
aF60.981628469226756
aF56.95199590164185
aF21.93053666053524
aF67.65343621667901
aF57.24844239403189
aF27.271648120913643
aF44.851903208670166
aF64.39452247251904
aF72.42269241395738
aF66.12442699291336
aF74.46916980950718
aF56.42458868661513
aF49.19387550060049
aF80.03870074877574
aF73.53343234212036
aF90.0476275428837
aF73.87273083033736
aF69.28155845356807
aF78.99468096640986
aF89.13404437265429
aF77.50331315108643
aF93.70987621116835
aF68.00798279144948
aF39.46869272375062
aF81.97754327562046
aF74.91037745365048
aF64.44039878949422
aF55.21624839408233
aF49.23538895097625
aF96.26149342865176
aF71.74394096077476
aF86.45622814431142
aF52.1366469809184
aF33.28492075107154
aF82.95845279077196
aF49.650327311861275
aF45.997426352093726
aF70.91379497128119
aF84.57573783218044
aF50.59098766459853
aF56.2939350905421
aF55.6053046166972
aF52.99297090476973
aF69.02375317340741
aF44.623177008044735
aF33.52810272165111
aF74.26432634424124
aF77.71507186509079
aF45.78975314806917
aF50.804520018033955
aF74.27712960126601
aF71.01007471371257
aF95.17971294550917
aF41.25959161595034
aF79.71883409638976
aF63.57586694830098
aF20.58923155697349
aF51.116496814741
aF49.67477545793466
aF97.05966189297273
aF43.86669442370108
aF56.0546387343372
aF88.12479100041057
aF72.11660141807377
aF87.04996370297638
aF41.66446971558792
aF95.6966131012694
aF66.67562521880942
aF66.66406819724898
aF51.3641206159528
aF53.57582594232497
aF67.80770377317846
aF76.80879945662377
aF23.093967180191846
aF28.299117456514566
aF76.39562226984498
aF57.03383383745993
aF39.89366584472258
aF91.21447968196861
aF65.92979744364047
aF48.4546349846965
aF41.16095252549182
aF67.54455629995437
aF49.47160552475578
aF75.49438325856568
aF65.065145279843
aF55.36349866433496
aF86.44615294449636
aF81.91503265950372
aF74.70253326011053
aF75.6973967513065
aF84.16526233866487
aF41.517780566287634
aF60.83629699371896
aF55.96581292629293
aF91.04107911898033
aF86.94091806506408
aF44.15364071969614
aF65.99642830475199
aF66.14870101535075
aF57.78134040127776
aF71.36353543310314
aF49.86870248980158
aF98.44237113815167
aF53.76808210400022
aF57.272453998009134
aF64.061876935928
aF45.81111663083162
aF86.42541817412989
aF50.72764011332748
aF91.38347396098138
aF63.10023796713431
aF57.89882617953998
aF59.27228705439387
aF43.20919898348765
aF58.61716822628472
aF49.855961142793774
aF57.52443471974465
aF57.48920237905289
aF45.95427268490607
aF78.51114946426833
aF65.70849314534405
aF59.623706778160965
aF48.89586518618777
aF64.91404529057014
aF49.18937187746803
aF85.64393772544183
aF55.5212960410093
aF44.13612323808465
aF83.2454497333688
aF48.46112019788262
aF45.80351739511812
aF79.23164808923502
aF48.942104235359366
aF67.09743515188637
aF52.989858914105334
aF77.50159537591375
aF44.806415863826
aF48.22812097804032
aF40.64385251009132
aF63.59108011735562
aF56.60754291332984
aF78.95303906425352
aF53.45793346924569
aF48.54518147387417
aF96.81568698338619
aF27.229140931186073
aF81.55219220743415
aF87.21366243366376
aF77.28935575392796
aF84.51658697451967
aF85.17042701369965
aF58.36098502093457
aF92.57206405205851
aF76.10390822917896
aF44.65762294719534
aF67.41006781665963
aF84.02080012705832
aF43.96718800532008
aF50.23278048451398
aF52.371260200624086
aF87.36862358922284
aF79.17296603076034
aF73.34094694106867
aF33.92612634159467
aF48.31558204115787
aF68.8762670131796
aF45.08500960955672
aF61.97896693240773
aF40.9845513487553
aF56.74050603774107
aF43.4782368078277
aF33.854545018640394
aF47.214154212073055
aF83.70189939741502
aF90.12092479989006
aF29.60617244913211
aF55.70831468901274
aF66.81719153809067
aF82.94965670802986
aF90.3450536453888
aF85.95639519301167
aF25.753693608713295
aF44.82860251111525
aF50.153769595547004
aF88.79745111365024
aF60.4651674859101
aF90.49502336240687
aF58.36848635235732
aF43.661193073632866
aF51.48885993026338
aF46.094275743232096
aF33.482872764839335
aF62.769398053921435
aF94.81118472969776
aF74.456865265358
aF78.30692275550555
aF36.51433691756273
aF49.21872148083115
aF54.534963521780675
aF77.77795608157231
aF52.514508106221115
aF44.397558380188656
aF53.55470711950341
aF53.52543122656889
aF53.280328375020275
aF45.90511882860608
aF59.39382730122399
aF35.829045881139315
aF92.25667203321596
aF48.096270627172046
aF49.00145759947249
aF48.2261681702103
aF84.95426053643384
aF49.85379511100554
aF96.00741552354455
aF46.70971041938783
aF36.49565332862588
aF69.73636225451372
aF66.34999773018401
aF44.471113160853406
aF50.954428977153285
aF43.759455079141134
aF60.58278006252783
aF71.81545174473007
aF49.698817212767096
aF59.81951911091899
aF54.58877600387036
aF65.1026004772998
aF56.94336357491309
aF49.53975322070771
aF81.58485263572236
aF71.5525211692717
aF55.791077256641714
aF42.5367772654928
aF46.50142091649012
aF69.42857064862814
aF81.8181469086505
aF74.21171423154063
aF39.514021004763514
aF29.494641884671207
aF46.369784348311356
aF60.09720047796187
aF52.52356803474264
aF72.26720859785377
aF78.11382352074901
aF50.09687579565639
aF82.32022926680287
aF72.27119701652808
aF43.280361091724316
aF61.66592604179259
aF80.73445755473406
aF42.03771760981034
aF80.11725899544552
aF78.89691027495216
aF40.60067065856975
aF38.45552229859773
aF49.10142906602387
aF28.669058575275606
aF45.501785342763924
aF68.24823447305488
aF31.847778803749147
aF36.77736466781501
aF69.89831508441931
aF43.95897961115203
aF45.119163636127496
aF75.26679910598443
aF49.50320119172066
aF78.8182389782407
aF35.689048361329924
aF48.93655792396247
aF93.90284971611733
aF58.22530371578996
aF54.35929825566292
aF85.79819046175855
aF58.87609091964632
aF38.004612453103604
aF50.77905248605679
aF73.31643357189981
aF84.98875159747041
aF104.29450822130724
aF62.0986902720288
aF65.18999745273956
aF92.2621397742238
aF21.90313703467615
aF62.87356037687457
aF51.06846075381257
aF35.974054213708555
aF54.55719056996653
aF30.894678797904604
aF50.96546847820192
aF73.8979484664502
aF89.58464902469771
aF64.67860116433619
aF50.58214463398821
aF65.21927066124448
aF89.12506265647633
aF43.89249007982244
aF80.80651743225545
aF36.468227168138384
aF80.27757887991564
aF82.14527697111014
aF82.12201599237213
aF74.7738919349739
aF85.63033491828469
aF68.1989028209338
aF96.6013509463175
aF44.19064388728437
aF48.002248863111674
aF58.773359098794444
aF56.15019895292472
aF105.75682783263899
aF97.76670712965033
aF93.05210918114143
aF76.89745302958042
aF51.29323243304502
aF46.83221109425264
aF27.624036018962414
aF49.26563467153085
aF90.08874071076627
aF39.58445991385564
aF98.49094179357233
aF53.14113447390188
aF87.24822804965689
aF69.37179260389536
aF72.4217637396779
aF88.33900386278172
aF64.80303732966546
aF76.14552791850112
aF37.89624321687474
aF97.59342909069021
aF89.057954389024
aF76.1268025320969
aF51.58039611013492
aF91.45911062713104
aF88.04490794565237
aF46.15290275442378
aF81.7543896490931
aF82.91648470959372
aF84.53397974992217
aF85.42312429570568
aF77.91899823486085
aF43.76054467462532
aF55.60225923642498
aF67.1158677673958
aF82.89628699345147
aF41.161137046195265
aF82.94310465728321
aF33.657690371732855
aF30.96766021760225
aF82.70620186810424
aF30.477357461607724
aF82.84289012782264
aF54.66542651480805
aF32.62654756361367
aF26.097779974176838
aF61.58886478919917
aF31.100678464020344
aF93.25206459679676
aF67.56592354471277
aF40.06264885068162
aF32.0144535221674
aF88.3677428232798
aF58.98040189287311
aF31.611190787158534
aF73.30371404747794
aF87.51304226042507
aF84.0329918782658
aF69.71797037765045
aF76.01579405228497
aF64.1536282552961
aF78.95455139088416
aF82.62362409687378
aF82.7664704375128
aF55.164347787324736
aF31.95014793946404
aF47.846709797781884
aF96.15118399575877
aF82.06800507289589
aF69.87377415638775
aF22.417643535552326
aF93.58028916797919
aF64.16171367516499
aF38.22479878071822
aF61.095732908674485
aF33.81039160017654
aF86.09004423441318
aF96.74997231461504
aF82.44571180254175
aF43.09974262844718
aF90.69684957495318
aF86.81906079858933
aF83.64957064691642
aF80.95545977753186
aF71.95594833858841
aF83.14822159460428
aF69.62908608645171
aF32.20412038872768
aF76.76550373950384
aF75.82960828974703
aF91.73867090057979
aF95.677861979253
aF56.589888350581376
aF97.5484708548565
aF78.19973083231696
aF74.4216192452838
aF92.34573895158607
aF87.69008347755977
aF74.96874605711402
aF80.49370053080756
aF42.04813108038915
aF95.16745804850102
aF69.53025526140954
aF78.59688698398377
aF44.58499652962922
aF75.01037951664375
aF74.00891680349898
aF87.17523688520362
aF42.661253726590814
aF78.47961507552645
aF52.29445510731106
aF65.82749966349826
aF95.8909813857445
aF44.476189055881804
aF81.52111945467968
aF88.92323607925978
aF84.38279320132735
aF78.50371551984455
aF81.15189198206276
aF69.90165480121132
aF72.74250980140438
aF86.98858213746551
aF41.755967693129904
aF72.85402432941123
aF59.38737577888813
aF74.91536761733735
aF54.01536954250216
aF64.14941260466023
aF92.92641679167514
aF85.263573500101
aF83.27341306118896
aF82.42123447649602
aF73.53238187605433
aF70.21073916778012
aF106.99169588813054
aF95.2773347797594
aF87.58253578800758
aF61.32026403878366
aF80.10369490974743
aF97.42937795530294
aF58.70921283632586
aF77.38982812130601
aF77.0015475890851
aF97.23062205007318
aF87.21093413432588
aF74.78024324169638
aF48.33057032599537
aF38.052756311011706
aF61.867169157506574
aF91.49289136507639
aF67.92260424096216
aF89.88792479445591
aF82.96295669043717
aF95.32142024164646
aF81.95931767892066
aF45.31417802755972
aF72.52782974519008
aF54.75561039456823
aF91.50761573030393
aF85.99372745706562
aF79.6306964723002
aF36.88054855287453
aF87.5704200611657
aF81.20328994406358
aF81.64157891756459
aF93.5737504546973
aF90.77657094901971
aF72.84895179160412
aF54.364676036022864
aF87.41553542078897
aF88.1977686167379
aF83.80843154332615
aF84.22513701449213
aF91.59482957005211
aF84.16069586990494
aF77.45995939544326
aF87.61228509720125
aF83.06723031317495
aF82.81171359797764
aF90.18660184225672
aF74.43755169561621
aF88.45781846705576
aF80.86113114976155
aF90.29476102400598
aF79.95905918108872
aF88.87613730355666
aF90.55098484234416
aF87.50795538555495
aF80.30169981999319
aF84.80796320654039
aF56.13926716733255
aF83.44887831062947
aF82.05261637859995
aF98.49180596078861
aF96.74942711224104
aF81.84370403114367
aF82.532897931908
aF81.02332131765655
aF96.12116917436668
aF70.29900018864367
aF94.90853030061531
aF58.55592980162179
aF95.67483944855272
aF74.65483247952741
aF90.11065512926555
aF74.53465948297529
aF74.57839109936467
aF88.23168079841643
aF82.37277999575474
aF91.23550726868584
aF66.5372725803061
aF94.1101447155611
aF81.55725041864035
aF64.82383863186382
aF91.59789922734197
aF70.56252633550261
aF90.6566053930334
aF68.50260229467261
aF54.28315412186381
aF62.97197476081364
aF60.998962718771935
aF50.09998769702095
aF78.51238830639983
aF85.08400998111989
aF89.84278788714272
aF39.852925188394835
aF94.22659332548393
aF82.51457586824985
aF48.809046928737445
aF41.21376787881395
aF82.50466287142257
aF82.49129449382073
aF86.94675421761063
aF97.66185086490222
aF87.27359007850983
aF78.81760182554396
aF81.54434350053607
aF68.38662497864169
aF94.08584747536048
aF80.30126101386007
aF94.3957152837072
aF41.418691197778486
aF76.23256980823177
aF39.75141825239151
aF37.75301660317976
aF51.295844138455074
aF54.321649593370594
aF89.16494102890249
aF85.14133517743635
aF48.607174513266486
aF59.130020365822276
aF83.66372256719497
aF25.771141640350287
aF38.06223195221543
aF105.79294932262087
aF48.47147267442364
aF85.95856853574686
aF45.62795712981854
aF61.43573613619698
aF87.42863280059933
aF103.02952887971347
aF51.1220412013982
aF93.36206246718628
aF64.98093498041402
aF72.01271668818283
aF85.33735052116742
aF76.59919028340082
aF77.2105245231178
aF65.34831418436782
aF72.8510099972153
aF70.94656005020892
aF70.3546304932149
aF57.54188121501783
aF76.36805147620967
aF77.81331940915074
aF72.6715294026798
aF59.3624204190062
aF94.70238948922795
aF64.91988891262551
aF78.28630523329957
aF37.04445092994358
aF71.9205594253276
aF49.817544555325725
aF72.48396210341124
aF64.98040446406134
aF70.35552675218122
aF82.69637078635381
aF83.30750376248692
aF77.85614672898994
aF93.9292947332468
aF40.25362660375346
aF52.499119593227306
aF33.3368837624683
aF95.70885173954565
aF88.13895375949893
aF53.80501501893693
aF86.65733963282813
aF55.149206597412565
aF56.038923519128005
aF100.20033919478709
aF56.15110808698689
aF67.61520397782913
aF87.45769418263494
aF47.769706441733966
aF85.59363413093031
aF76.56387330403311
aF82.86079848511282
aF77.92340875992457
aF94.74417745228821
aF75.18677936099746
aF57.66103646526339
aF80.61698983898728
aF77.52292619726612
aF81.08572878734171
aF63.454620142577795
aF90.87385878340098
aF53.571011714156
aF72.03620681541446
aF78.66739930420462
aF87.13449397685483
aF88.73595095606481
aF94.1718556764016
aF87.73498492141621
aF64.70613189887796
aF89.82396204566986
aF92.40920870021063
aF56.87689189715875
aF92.13377941452889
aF61.5111576215288
aF73.89783893015176
aF89.71968772254823
aF64.51439013148345
aF47.282492487512215
aF46.246742396847765
aF42.630034357701845
aF71.48455389574403
aF58.238347808731625
aF39.228953351001906
aF68.13280709579767
aF47.00335617300969
aF33.52559162705889
aF87.44482011695621
aF49.720349445173724
aF43.615431618766365
aF50.13211274135577
aF79.25903920759976
aF81.4217009358432
aF57.36357253367937
aF69.67964818735909
aF54.044675781477174
aF82.19679929252388
aF85.99502646063038
aF88.62701988103976
aF59.02877651359781
aF61.771742599604444
aF38.1986626179994
aF68.78510810464618
aF29.226810497015393
aF52.58020057405105
aF72.70340894757794
aF84.01917982383196
aF46.65273750639605
aF95.47495397611053
aF75.04520192126304
aF95.59175600554005
aF77.4351899305403
aF44.31808452695489
aF79.37396739039488
aF84.83633496272222
aF84.05179907741343
aF97.11795063871472
aF74.9368741285699
aF83.83026773410737
aF90.81666003325483
aF56.161689798623684
aF91.92307214852136
aF86.65306381187274
aF54.47252700646072
aF25.738625056877524
aF60.00177169935947
aF82.50102341416954
aF88.6390495907887
aF62.530410868428056
aF89.03148152723705
aF76.26554387601513
aF49.0093267865585
aF60.26082145836218
aF70.01009753806649
aF61.88300411300046
aF67.02693181071291
aF89.19399867349591
aF92.46665919739628
aF43.154708579533335
aF82.23567252728793
aF83.16358383124046
aF43.4934579867235
aF71.37333461478394
aF81.52000185883387
aF88.54967723459954
aF70.79363028757794
aF76.7074689316413
aF77.42684086989055
aF90.91760055213764
aF65.9576342783663
aF94.99439286499816
aF62.2138986067492
aF57.69905349894492
aF59.212657966147944
aF44.184391687946814
aF58.05818270294416
aF83.51822482645005
aF57.96581471856504
aF84.00222829750581
aF69.99607456112767
aF54.01749676639881
aF79.58324046695691
aF61.74040011831548
aF67.79558172009524
aF86.86056714157141
aF77.94382368919494
aF44.64286961420933
aF90.04075096139863
aF56.13376694291423
aF33.8987530148304
aF83.51809287957302
aF55.67488619474487
aF48.24219681123527
aF39.4554386915456
aF53.14473833085858
aF67.9229623536126
aF45.542560675084005
aF62.67587574462992
aF52.15958417723483
aF84.32116482483595
aF69.9932593888401
aF56.319207775274464
aF45.07729588883231
aF54.76835366173638
aF64.75161552210663
aF27.716280372764032
aF67.80472204561042
aF45.294348474519026
aF97.82937715293599
aF38.897057276876794
aF88.84805333312818
aF72.9069004369809
aF63.13092681258119
aF56.05524974908953
aF57.86421653084518
aF46.87782650313932
aF51.259435642163965
aF57.031499988793364
aF84.56344923786692
aF68.59721494605878
aF58.3657174471738
aF48.473841860716526
aF77.45581016337283
aF45.00513083063085
aF66.62989983360389
aF50.592052466763434
aF52.23075989785121
aF85.7570103373469
aF70.12591842880349
aF62.26059775172061
aF90.79930241123074
aF53.11573327671863
aF77.98140640480705
aF87.65350099815296
aF64.39490704958712
aF57.616992572668515
aF46.11337068892247
aF49.0435907972079
aF58.9240254321952
aF74.28282502510277
aF48.30558625881414
aF80.84476858222823
aF72.3656875757401
aF48.6541514370838
aF56.70991456450808
aF79.57847752414816
aF45.26008638911865
aF64.81988249526225
aF24.174098960253364
aF60.012963995282135
aF76.06750895148552
aF75.12455719091747
aF67.55330743992513
aF55.29548337559772
aF48.99560536535012
aF74.12308549482867
aF46.71757333047656
aF57.798331458369994
aF63.60769852759475
aF53.55020909611481
aF60.691225147123696
aF47.606310966461365
aF86.87593258740978
aF40.07305685000907
aF45.19100460649951
aF59.217258420063786
aF53.68238031112077
aF60.06885784029767
aF75.93441474413885
aF39.494801386297
aF78.94056143138272
aF97.74022321278197
aF96.60671670786166
aF82.28483760274722
aF49.311473061992054
aF55.72912942864245
aF94.60431035546628
aF36.18272726888884
aF38.101054994215225
aF37.99135223366281
aF78.1232920219976
aF66.51627218934911
aF57.447389224302114
aF74.50155444925716
aF75.66509947054067
aF69.91536649214967
aF68.50568430412602
aF40.248409094495095
aF34.60897330400778
aF67.12345706555799
aF51.3491908308225
aF48.80591726924595
aF32.37530172693543
aF44.92173302401967
aF61.03606529024915
aF40.40652509079497
aF57.04454904511654
aF45.12706376754009
aF37.110703206525294
aF75.58967233639723
aF35.09215708060196
aF31.410651086458163
aF47.07863454272805
aF46.49531413952954
aF29.350217498317274
aF54.6097861241924
aF43.86601841383792
aF39.197052035688735
aF60.92054287617109
aF75.5907253163648
aF57.076511609197794
aF50.40899654450317
aF87.06172838605426
aF50.40862512636707
aF45.945483208930966
aF47.56551105858327
aF69.61450037856389
aF48.92115332970688
aF72.15796415880033
aF56.32623249436487
aF95.36634347616854
aF75.45781278740269
aF34.66009268435931
aF99.32996352685821
aF45.0665733872565
aF44.754274175427234
aF56.098307648617485
aF85.92014460702215
aF80.18063621594075
aF90.91871059537004
aF65.80955889860039
aF61.311056239750734
aF89.34700464706462
aF93.8541537426534
aF35.723017382003555
aF76.78675689978877
aF60.812759455086315
aF36.48968716875628
aF98.108059328555
aF79.67897196298102
aF90.45938795391602
aF74.93358365594975
aF54.58720968579204
aF80.71687267658257
aF95.08558523754941
aF41.095847832532
aF62.02377175658159
aF52.77955195323155
aF56.50948039909414
aF46.855151283561014
aF44.81943139039822
aF51.462743437380055
aF39.700473650279136
aF83.64480549156973
aF70.21439927491761
aF62.67304164680246
aF51.742970049245336
aF53.65282364877927
aF79.08138141846969
aF77.19659584954873
aF65.4618585284135
aF67.16365432772669
aF52.453248483935766
aF56.44606843268158
aF57.780900155295164
aF36.160864934902904
aF69.19258539114136
aF82.4718772721845
aF60.48805411625277
aF53.64604655384657
aF89.88378580762623
aF64.87320183215243
aF64.45431195855645
aF65.42324879722887
aF56.82541726001306
aF53.89533920009771
aF44.978558782067886
aF36.87767237848013
aF36.981005251917246
aF40.89524194660298
aF47.71713833160875
aF95.30073054425661
aF65.3331968995421
aF74.75856953199357
aF73.99958324633636
aF77.24777154714309
aF72.26388332141019
aF90.02674358209285
aF89.67024581525509
aF61.064309008470794
aF77.47290226749836
aF83.27719579490312
aF43.465574819028554
aF65.85720461601221
aF44.02750185530413
aF49.00697340326985
aF86.26996448731525
aF39.63361789060541
aF41.30389587073906
aF55.33785375373802
aF55.831384041232454
aF79.79348286272298
aF94.33264627925362
aF58.84099871776567
aF41.745237835300614
aF54.7638326585695
aF76.68851537993352
aF74.64467773021389
aF80.92836343784465
aF61.646635054674356
aF93.83864228027201
aF57.22826373540282
aF53.95049288894253
aF88.63547798254272
aF79.32074200974631
aF63.06464749713694
aF32.345603959105
aF32.594518488987255
aF36.68594282539465
aF50.022419572504475
aF53.27790894437273
aF57.09108410255792
aF30.260736454850775
aF64.4695894983663
aF42.608379650375994
aF66.84264118474101
aF38.27874634253146
aF74.26980484596075
aF63.928012144550834
aF58.149583862656876
aF58.93529396759172
aF60.74592528694925
aF66.71415221426295
aF62.16774600807505
aF65.97190697700545
aF62.48630906940451
aF96.07067365131881
aF52.87372419242307
aF79.76371601211238
aF62.62598882672059
aF94.27388754743015
aF90.62242254447915
aF70.04235015980294
aF38.224896009978934
aF61.54173219878653
aF94.04721830068182
aF78.70343224998877
aF91.98641271441252
aF79.12868399286057
aF40.434243176178654
aF75.50583497315449
aF94.38605349856076
aF45.76672019836174
aF64.75565028549741
aF107.95751853253184
aF92.93727006506866
aF80.70224387303838
aF92.38633230568715
aF95.94247698861795
aF82.78492909675386
aF94.59320340019782
aF64.22887342029112
aF95.88333227291044
aF95.41942623489422
aF84.50486107390677
aF94.3867023700687
aF71.02455269687869
aF70.04485625877817
aF92.85116658802039
aF65.1544640098857
aF38.73138957816377
aF68.59360077627618
aF85.02861425529565
aF94.21398119875782
aF94.98388328233041
aF67.09057606638454
aF85.95169045879855
aF91.88861353602674
aF95.27745676113075
aF75.81433408976832
aF90.7281118229724
aF60.577125279091234
aF91.89685212114314
aF87.24706371473125
aF41.85141870059126
aF57.867392185148425
aF40.65687985152164
aF38.60788351228121
aF38.019349046462644
aF55.07905804746403
aF61.96862336058665
aF34.868590656196034
aF49.67245378966566
aF87.8554263861752
aF89.86553833236562
aF69.93932418075292
aF37.61841122559166
aF57.18646897872195
aF49.33500286465761
aF48.254960470580166
aF49.099178130246486
aF37.41446663517918
aF76.4952803728165
aF43.02509817209695
aF63.396432736246744
aF67.08531028484322
aF92.1298450657047
aF52.457076865075976
aF80.7058844620278
aF33.94959830735214
aF88.38935583240935
aF68.99790258412665
aF45.00977423620901
aF73.59940159756192
aF73.26716341273368
aF38.79405498211743
aF90.76242194487209
aF75.68809980819321
aF71.63717772989236
aF69.93035392022982
aF81.97395130636158
aF53.92282431755792
aF40.78958135185253
aF77.6200365137374
aF56.601579304223606
aF92.41349417759139
aF62.15528407430736
aF89.34324956817966
aF55.656876622838624
aF51.29146636565019
aF66.4032974153296
aF71.23369772594287
aF48.35406888125127
aF41.061066165150066
aF34.71880588884416
aF39.46330548334333
aF33.51809849402852
aF48.864646774672764
aF42.280135315619724
aF54.91368503257364
aF41.414827391058296
aF52.288131367144445
aF29.95552857732941
aF71.26926979847109
aF75.95660749506904
aF36.656164977161495
aF63.21421255767363
aF61.98943333566566
aF71.20026441409406
aF42.95354277563866
aF56.6957949432875
aF44.93514686171464
aF33.51551231787988
aF62.6401798665481
aF33.16323575126077
aF30.911737242455587
aF43.91770494402416
aF78.06842515384241
aF86.65883679091294
aF94.45031388174117
aF80.28498918142381
aF80.56147489240219
aF38.4696762340825
aF89.82323072180316
aF67.4373853208785
aF36.61868596439503
aF81.2260609531081
aF33.9244353970829
aF44.859587463124655
aF69.82264318733726
aF79.83134583041326
aF65.46115887281555
aF88.41150741056379
aF67.06357944554911
aF88.61480075901328
aF96.52180189244724
aF88.5135038063144
aF38.84667900796933
aF38.02642462234992
aF95.90861022759053
aF81.2990224532804
aF93.68751984271508
aF78.95655036208032
aF57.783744158766694
aF78.48249105771652
aF84.56696953301369
aF81.05494009284962
aF47.293712824195524
aF74.619738889314
aF80.47515358563007
aF40.58302435910176
aF78.83127930136621
aF73.08261759508794
aF101.58850267625282
aF74.74422547640395
aF88.63423606950087
aF96.07564091726755
aF48.3768550277352
aF77.8504287509859
aF39.57554905047641
aF54.78607511901682
aF82.8506514350772
aF91.9223861228447
aF81.32586989123493
aF84.40414424285393
aF67.76013764651613
aF83.64773833051838
aF91.94019503938604
aF62.12717549353052
aF40.49038165347723
aF77.60048456724357
aF40.404592194377216
aF42.99465576143052
aF75.24249592529762
aF53.05526135727108
aF80.75880370175881
aF34.39349070994703
aF69.12338833767754
aF73.49207864096202
aF70.93987005542762
aF70.22005774089969
aF36.366689034108774
aF78.60150705334433
aF39.498487401434886
aF48.688520915026814
aF76.88400714625774
aF67.66911797365967
aF48.58008695864791
aF60.738317792487
aF65.25887539146643
aF72.71066646408363
aF68.88443192348117
aF73.53783953090448
aF59.40645854173975
aF69.93047522020086
aF64.08812603697125
aF58.71670969751158
aF37.54272295019324
aF64.50267128990984
aF74.0423987278077
aF69.72419009313356
aF50.53074643810933
aF77.32447925821239
aF56.140272234745495
aF35.54698104098808
aF45.88503035474683
aF77.20789623783321
aF45.44989302262231
aF70.96022637474235
aF72.81037820740055
aF68.81020700011561
aF57.668268299875784
aF70.6851496827395
aF72.53759740337631
aF79.65097853278223
aF73.69681883070962
aF44.38078777723773
aF57.760191512702605
aF22.877212421849773
aF74.03127844666565
aF49.80658714566733
aF68.74517178248888
aF72.82530156249277
aF70.02771582648734
aF77.74295248335449
aF68.59515447643815
aF82.23399839457451
aF70.17165855496916
aF71.35721167706944
aF69.43537436628364
aF76.89200621599127
aF69.35155782619148
aF72.79191500801029
aF73.263380911942
aF76.55424506077834
aF50.865446368870565
aF43.47018608182145
aF79.24453524362336
aF78.32828247379265
aF85.97879034885065
aF53.206696447537574
aF50.62911897329172
aF55.627415410807544
aF42.12173555263122
aF65.20134082103523
aF83.30331220301183
aF79.40718397942095
aF71.8042063299272
aF72.96966441981769
aF54.574649778203636
aF70.98624125413615
aF40.78795002394323
aF80.4013409061163
aF68.44662258707046
aF40.96509790907074
aF93.78349611506013
aF50.26196709287889
aF53.87937257082558
aF80.45939863397274
aF31.07446172029912
aF60.60087672604273
aF27.865427143251516
aF60.28289103490599
aF75.86747525982972
aF72.25318865159025
aF69.83266211765715
aF42.26149536458375
aF55.48920061704876
aF74.25849214129667
aF91.8596738275701
aF95.61221499641098
aF59.75081503731759
aF52.72382801192996
aF30.045383559964634
aF71.01440773689818
aF61.81574971820381
aF90.45670826178198
aF67.10391341283542
aF52.41033880418631
aF91.05506156374642
aF93.15922637266515
aF61.61844437545096
aF43.89987305547078
aF45.14461259094482
aF50.70830738785625
aF42.68405732782161
aF40.80936299056714
aF47.743453021539786
aF36.75264173829393
aF36.17545344207889
aF48.13021890398614
aF41.45065371586683
aF39.33113415192268
aF46.060716620355024
aF60.94368873546502
aF43.72125735896044
aF41.52183745064724
aF40.90138789410382
aF43.38424136277346
aF37.58792275668429
aF42.66700132620841
aF44.17768209836174
aF43.010166610860395
aF46.21598832689154
aF35.78327998653724
aF45.213196941307544
aF45.62099217524438
aF36.330004178051716
aF50.364545011816645
aF37.12509246534876
aF65.78313900053583
aF74.54600928607135
aF45.87894625634972
aF65.78770570524148
aF45.2678927318658
aF40.74523351263589
aF42.188353811713455
aF85.39852424169783
aF42.45370558696841
aF80.40670339063661
aF52.705318415877606
aF69.58928629074602
aF29.510223561644835
aF50.93323271850581
aF72.12158808933003
aF73.25648550698912
aF47.95406991742013
aF47.99678288455098
aF41.73968767539061
aF41.550778559953216
aF55.6107608390598
aF53.99483365489704
aF22.162768597222954
aF75.92089547863617
aF54.639537600788834
aF52.54962779156328
aF66.83440946089897
aF81.391489940978
aF70.37294050885234
aF75.47146401985111
aF43.69785946830535
aF67.04285768222454
aF90.70454173989039
aF50.84972936835811
aF85.17383464430779
aF46.22946115498825
aF59.0739089633627
aF77.57833911185446
aF60.33702301135362
aF87.00253587824513
aF44.81882535170031
aF53.61076145722205
aF72.90651121029669
aF43.24877740553277
aF67.70371545365177
aF31.385880922527452
aF30.707535143098152
aF67.44899619764007
aF59.00952047502632
aF53.972928599414175
aF46.98055400820378
aF97.02285058069909
aF73.36310828866661
aF60.165445108909545
aF50.19461232625268
aF70.75770855790739
aF77.4452891193086
aF83.3201304702872
aF55.86751402101792
aF63.62903968179616
aF49.20255450155679
aF37.99255780610798
aF46.135949862852456
aF43.34529998964841
aF40.962431090246056
aF61.52861161031021
aF71.50553849554305
aF48.74764827245661
aF31.3298210387806
aF41.236896484267575
aF95.49702161174345
aF32.87473753978887
aF61.73075383753364
aF83.45131295503505
aF75.06148012010306
aF65.59196027246347
aF56.68113582030574
aF45.17931032151428
aF56.98489647276019
aF41.12423785315693
aF83.84588412989535
aF63.4298359381536
aF56.625619029109245
aF58.60390978467669
aF64.71287382290177
aF67.75665997258105
aF62.152796152378784
aF95.59604315009419
a.