(lp0
I0
aF100.0
a(lp1
F-0.5
aF0.0
aF0.5
aF1.0
aF1.5
aF2.0
aF2.5
aF3.0
aF3.5
aF4.0
aF4.5
aF5.0
aF5.5
aF6.0
aF6.5
aF7.0
aF7.5
aF8.0
aa(lp2
F2.832166136235594
aF3.11169647154514
aF3.4906220034997255
aF3.4806227870204203
aF5.308688498289314
aF7.254953902865821
aF5.808947806328608
aF6.917666899235507
aF5.607023330261435
aF8.838561157521239
aF8.311886008932136
aF4.3923423910812955
aF4.053413725043933
aF1.6007700889109435
aF2.6081538386917447
aF0.9430604318318342
aF1.5152544017073288
aF3.9241701209979816
aa.(lp0
I1
aF1000000.0
a(lp1
F0.5
aF1.0
aF1.5
aF2.0
aF2.5
aF3.0
aF3.5
aF4.0
aF4.5
aF5.0
aF5.5
aF6.0
aF6.5
aF7.0
aF7.5
aF8.0
aF8.5
aF9.0
aF9.5
aF10.0
aF10.5
aF11.0
aF11.5
aF12.0
aF12.5
aF13.0
aF13.5
aF14.0
aF14.5
aa(lp2
F3.3380523336830143
aF7.392232259999945
aF10.154301126541739
aF8.17724676421325
aF7.505191980600557
aF6.77691658850533
aF5.52339701360424
aF4.670532605082633
aF3.988700324342542
aF2.688737638086314
aF2.523705338087518
aF2.269934844462798
aF1.8006890542956635
aF1.6743223111188474
aF1.351887121758542
aF1.1344118826218876
aF1.1135976652522013
aF0.7572375237377447
aF0.6056863182630868
aF0.517466628272707
aF0.5426510905705485
aF0.45569062369506064
aF0.5047262532279166
aF0.37695214304033864
aF0.35591570982684756
aF0.3731744736956624
aF0.34628635659532
aF0.25488157284374247
aF2.825474453974006
aa.(lp0
I2
aI100
a(lp1
F3.0
aF3.5
aF4.0
aF4.5
aF5.0
aF5.5
aF6.0
aF6.5
aF7.0
aF7.5
aF8.0
aF8.5
aF9.0
aF9.5
aF10.0
aF10.5
aF11.0
aF11.5
aF12.0
aF12.5
aF13.0
aF13.5
aF14.0
aF14.5
aF15.0
aF15.5
aF16.0
aF16.5
aF17.0
aF17.5
aF18.0
aF18.5
aF19.0
aF19.5
aF20.0
aF20.5
aF21.0
aF21.5
aF22.0
aa(lp2
F3.296285832264795
aF2.1851215960706756
aF3.353052398235281
aF3.868906613348402
aF4.114141655619064
aF4.318518679503619
aF4.832112663812401
aF5.409949362136787
aF5.471497185577988
aF5.0159737465498875
aF4.77551996174994
aF4.299915241344837
aF3.787103644622172
aF3.2121357007802147
aF2.561797752808989
aF2.1700823680264274
aF1.9422337165583639
aF1.7506356899137199
aF1.54086888488036
aF1.3622237193836524
aF1.1379392780301218
aF0.9452980679373222
aF0.7488318518679503
aF0.6464260100406407
aF0.5614065590159303
aF0.5448894877534609
aF0.4562188946602047
aF0.4380501162714885
aF0.43144328776650076
aF0.35137895812053116
aF0.3239084606524243
aF0.2915697737595897
aF0.2809640753700041
aF0.2544498293960402
aF0.19577076043726774
aF0.21367874296394498
aF0.18812074848412405
aF0.15204398756873055
aF2.569534696716145
aa.(lp0
I3
aI100
a(lp1
F3.0
aF3.5
aF4.0
aF4.5
aF5.0
aF5.5
aF6.0
aF6.5
aF7.0
aF7.5
aF8.0
aF8.5
aF9.0
aF9.5
aF10.0
aF10.5
aF11.0
aF11.5
aF12.0
aF12.5
aF13.0
aF13.5
aF14.0
aF14.5
aF15.0
aF15.5
aF16.0
aF16.5
aF17.0
aF17.5
aF18.0
aF18.5
aF19.0
aF19.5
aF20.0
aF20.5
aF21.0
aF21.5
aF22.0
aF22.5
aF23.0
aF23.5
aF24.0
aF24.5
aF25.0
aF25.5
aF26.0
aF26.5
aF27.0
aF27.5
aF28.0
aF28.5
aF29.0
aF29.5
aF30.0
aF30.5
aF31.0
aF31.5
aF32.0
aF32.5
aF33.0
aF33.5
aF34.0
aF34.5
aF35.0
aF35.5
aa(lp2
F2.983534309980179
aF1.359111494978352
aF1.7641652548472466
aF2.1515020651319356
aF2.4154846139365955
aF2.9000431850646113
aF3.0922720880532397
aF3.146087322415263
aF3.192151391334197
aF2.990621089813861
aF2.8931778671007318
aF2.7665016775736637
aF2.7607436689587974
aF2.64713372975008
aF2.4092836815821235
aF2.3862516471226565
aF2.2088606894108005
aF2.1165110897031307
aF1.9736681836804748
aF1.938234284512064
aF1.7741310389883622
aF1.7223089614545615
aF1.667386417743525
aF1.5159064987985693
aF1.448139166638984
aF1.3159264303668516
aF1.3148191210178386
aF1.1721976768649858
aF1.058587737656269
aF1.0125236687373353
aF0.9653522904693884
aF0.8668017584072463
aF0.8171942995714712
aF0.7636005270792501
aF0.7461050393648474
aF0.7644863745584605
aF0.7456621156252421
aF0.612342070004097
aF0.5727003953094376
aF0.5093623005459035
aF0.4205560907550742
aF0.4544397568348669
aF0.4072683785669202
aF0.35123852550687085
aF0.35544630103311964
aF0.31159685081221145
aF0.31137538894240885
aF0.3007452191918856
aF0.28214242212847007
aF0.25180214596551836
aF0.25180214596551836
aF0.21526093744809488
aF0.209060005093623
aF0.18115580949849958
aF0.18624943250395862
aF0.17406902966481744
aF0.17429049153462
aF0.182484580717315
aF0.14837945276771972
aF0.14550044846028637
aF0.14705068154890433
aF0.12512595643845023
aF0.12889080822509386
aF0.12069671904239887
aF0.12490449456864766
aF2.5775947026320747
aa.